
AVRASM ver. 2.1.30  C:\Users\Vovan\Desktop\midifs\Debug\List\midifs.asm Mon Feb 05 19:06:35 2018

C:\Users\Vovan\Desktop\midifs\Debug\List\midifs.asm(1088): warning: Register r5 already defined by the .DEF directive
C:\Users\Vovan\Desktop\midifs\Debug\List\midifs.asm(1089): warning: Register r4 already defined by the .DEF directive
C:\Users\Vovan\Desktop\midifs\Debug\List\midifs.asm(1090): warning: Register r7 already defined by the .DEF directive
C:\Users\Vovan\Desktop\midifs\Debug\List\midifs.asm(1091): warning: Register r6 already defined by the .DEF directive
C:\Users\Vovan\Desktop\midifs\Debug\List\midifs.asm(1092): warning: Register r9 already defined by the .DEF directive
C:\Users\Vovan\Desktop\midifs\Debug\List\midifs.asm(1093): warning: Register r8 already defined by the .DEF directive
C:\Users\Vovan\Desktop\midifs\Debug\List\midifs.asm(1094): warning: Register r11 already defined by the .DEF directive
C:\Users\Vovan\Desktop\midifs\Debug\List\midifs.asm(1095): warning: Register r10 already defined by the .DEF directive
C:\Users\Vovan\Desktop\midifs\Debug\List\midifs.asm(1096): warning: Register r13 already defined by the .DEF directive
C:\Users\Vovan\Desktop\midifs\Debug\List\midifs.asm(1097): warning: Register r12 already defined by the .DEF directive
                 
                 
                 ;CodeVisionAVR C Compiler V3.12 Advanced
                 ;(C) Copyright 1998-2014 Pavel Haiduc, HP InfoTech s.r.l.
                 ;http://www.hpinfotech.com
                 
                 ;Build configuration    : Debug
                 ;Chip type              : ATmega16A
                 ;Program type           : Application
                 ;Clock frequency        : 4,000000 MHz
                 ;Memory model           : Small
                 ;Optimize for           : Size
                 ;(s)printf features     : int, width
                 ;(s)scanf features      : int, width
                 ;External RAM size      : 0
                 ;Data Stack size        : 256 byte(s)
                 ;Heap size              : 0 byte(s)
                 ;Promote 'char' to 'int': Yes
                 ;'char' is unsigned     : Yes
                 ;8 bit enums            : Yes
                 ;Global 'const' stored in FLASH: No
                 ;Enhanced function parameter passing: Yes
                 ;Enhanced core instructions: On
                 ;Automatic register allocation for global variables: On
                 ;Smart register allocation: On
                 
                 	#define _MODEL_SMALL_
                 
                 	#pragma AVRPART ADMIN PART_NAME ATmega16A
                 	#pragma AVRPART MEMORY PROG_FLASH 16384
                 	#pragma AVRPART MEMORY EEPROM 512
                 	#pragma AVRPART MEMORY INT_SRAM SIZE 1024
                 	#pragma AVRPART MEMORY INT_SRAM START_ADDR 0x60
                 
                 	#define CALL_SUPPORTED 1
                 
                 	.LISTMAC
                 	.EQU UDRE=0x5
                 	.EQU RXC=0x7
                 	.EQU USR=0xB
                 	.EQU UDR=0xC
                 	.EQU SPSR=0xE
                 	.EQU SPDR=0xF
                 	.EQU EERE=0x0
                 	.EQU EEWE=0x1
                 	.EQU EEMWE=0x2
                 	.EQU EECR=0x1C
                 	.EQU EEDR=0x1D
                 	.EQU EEARL=0x1E
                 	.EQU EEARH=0x1F
                 	.EQU WDTCR=0x21
                 	.EQU MCUCR=0x35
                 	.EQU GICR=0x3B
                 	.EQU SPL=0x3D
                 	.EQU SPH=0x3E
                 	.EQU SREG=0x3F
                 
                 	.DEF R0X0=R0
                 	.DEF R0X1=R1
                 	.DEF R0X2=R2
                 	.DEF R0X3=R3
                 	.DEF R0X4=R4
                 	.DEF R0X5=R5
                 	.DEF R0X6=R6
                 	.DEF R0X7=R7
                 	.DEF R0X8=R8
                 	.DEF R0X9=R9
                 	.DEF R0XA=R10
                 	.DEF R0XB=R11
                 	.DEF R0XC=R12
                 	.DEF R0XD=R13
                 	.DEF R0XE=R14
                 	.DEF R0XF=R15
                 	.DEF R0X10=R16
                 	.DEF R0X11=R17
                 	.DEF R0X12=R18
                 	.DEF R0X13=R19
                 	.DEF R0X14=R20
                 	.DEF R0X15=R21
                 	.DEF R0X16=R22
                 	.DEF R0X17=R23
                 	.DEF R0X18=R24
                 	.DEF R0X19=R25
                 	.DEF R0X1A=R26
                 	.DEF R0X1B=R27
                 	.DEF R0X1C=R28
                 	.DEF R0X1D=R29
                 	.DEF R0X1E=R30
                 	.DEF R0X1F=R31
                 
                 	.EQU __SRAM_START=0x0060
                 	.EQU __SRAM_END=0x045F
                 	.EQU __DSTACK_SIZE=0x0100
                 	.EQU __HEAP_SIZE=0x0000
                 	.EQU __CLEAR_SRAM_SIZE=__SRAM_END-__SRAM_START+1
                 
                 	.MACRO __CPD1N
                 	CPI  R30,LOW(@0)
                 	LDI  R26,HIGH(@0)
                 	CPC  R31,R26
                 	LDI  R26,BYTE3(@0)
                 	CPC  R22,R26
                 	LDI  R26,BYTE4(@0)
                 	CPC  R23,R26
                 	.ENDM
                 
                 	.MACRO __CPD2N
                 	CPI  R26,LOW(@0)
                 	LDI  R30,HIGH(@0)
                 	CPC  R27,R30
                 	LDI  R30,BYTE3(@0)
                 	CPC  R24,R30
                 	LDI  R30,BYTE4(@0)
                 	CPC  R25,R30
                 	.ENDM
                 
                 	.MACRO __CPWRR
                 	CP   R@0,R@2
                 	CPC  R@1,R@3
                 	.ENDM
                 
                 	.MACRO __CPWRN
                 	CPI  R@0,LOW(@2)
                 	LDI  R30,HIGH(@2)
                 	CPC  R@1,R30
                 	.ENDM
                 
                 	.MACRO __ADDB1MN
                 	SUBI R30,LOW(-@0-(@1))
                 	.ENDM
                 
                 	.MACRO __ADDB2MN
                 	SUBI R26,LOW(-@0-(@1))
                 	.ENDM
                 
                 	.MACRO __ADDW1MN
                 	SUBI R30,LOW(-@0-(@1))
                 	SBCI R31,HIGH(-@0-(@1))
                 	.ENDM
                 
                 	.MACRO __ADDW2MN
                 	SUBI R26,LOW(-@0-(@1))
                 	SBCI R27,HIGH(-@0-(@1))
                 	.ENDM
                 
                 	.MACRO __ADDW1FN
                 	SUBI R30,LOW(-2*@0-(@1))
                 	SBCI R31,HIGH(-2*@0-(@1))
                 	.ENDM
                 
                 	.MACRO __ADDD1FN
                 	SUBI R30,LOW(-2*@0-(@1))
                 	SBCI R31,HIGH(-2*@0-(@1))
                 	SBCI R22,BYTE3(-2*@0-(@1))
                 	.ENDM
                 
                 	.MACRO __ADDD1N
                 	SUBI R30,LOW(-@0)
                 	SBCI R31,HIGH(-@0)
                 	SBCI R22,BYTE3(-@0)
                 	SBCI R23,BYTE4(-@0)
                 	.ENDM
                 
                 	.MACRO __ADDD2N
                 	SUBI R26,LOW(-@0)
                 	SBCI R27,HIGH(-@0)
                 	SBCI R24,BYTE3(-@0)
                 	SBCI R25,BYTE4(-@0)
                 	.ENDM
                 
                 	.MACRO __SUBD1N
                 	SUBI R30,LOW(@0)
                 	SBCI R31,HIGH(@0)
                 	SBCI R22,BYTE3(@0)
                 	SBCI R23,BYTE4(@0)
                 	.ENDM
                 
                 	.MACRO __SUBD2N
                 	SUBI R26,LOW(@0)
                 	SBCI R27,HIGH(@0)
                 	SBCI R24,BYTE3(@0)
                 	SBCI R25,BYTE4(@0)
                 	.ENDM
                 
                 	.MACRO __ANDBMNN
                 	LDS  R30,@0+(@1)
                 	ANDI R30,LOW(@2)
                 	STS  @0+(@1),R30
                 	.ENDM
                 
                 	.MACRO __ANDWMNN
                 	LDS  R30,@0+(@1)
                 	ANDI R30,LOW(@2)
                 	STS  @0+(@1),R30
                 	LDS  R30,@0+(@1)+1
                 	ANDI R30,HIGH(@2)
                 	STS  @0+(@1)+1,R30
                 	.ENDM
                 
                 	.MACRO __ANDD1N
                 	ANDI R30,LOW(@0)
                 	ANDI R31,HIGH(@0)
                 	ANDI R22,BYTE3(@0)
                 	ANDI R23,BYTE4(@0)
                 	.ENDM
                 
                 	.MACRO __ANDD2N
                 	ANDI R26,LOW(@0)
                 	ANDI R27,HIGH(@0)
                 	ANDI R24,BYTE3(@0)
                 	ANDI R25,BYTE4(@0)
                 	.ENDM
                 
                 	.MACRO __ORBMNN
                 	LDS  R30,@0+(@1)
                 	ORI  R30,LOW(@2)
                 	STS  @0+(@1),R30
                 	.ENDM
                 
                 	.MACRO __ORWMNN
                 	LDS  R30,@0+(@1)
                 	ORI  R30,LOW(@2)
                 	STS  @0+(@1),R30
                 	LDS  R30,@0+(@1)+1
                 	ORI  R30,HIGH(@2)
                 	STS  @0+(@1)+1,R30
                 	.ENDM
                 
                 	.MACRO __ORD1N
                 	ORI  R30,LOW(@0)
                 	ORI  R31,HIGH(@0)
                 	ORI  R22,BYTE3(@0)
                 	ORI  R23,BYTE4(@0)
                 	.ENDM
                 
                 	.MACRO __ORD2N
                 	ORI  R26,LOW(@0)
                 	ORI  R27,HIGH(@0)
                 	ORI  R24,BYTE3(@0)
                 	ORI  R25,BYTE4(@0)
                 	.ENDM
                 
                 	.MACRO __DELAY_USB
                 	LDI  R24,LOW(@0)
                 __DELAY_USB_LOOP:
                 	DEC  R24
                 	BRNE __DELAY_USB_LOOP
                 	.ENDM
                 
                 	.MACRO __DELAY_USW
                 	LDI  R24,LOW(@0)
                 	LDI  R25,HIGH(@0)
                 __DELAY_USW_LOOP:
                 	SBIW R24,1
                 	BRNE __DELAY_USW_LOOP
                 	.ENDM
                 
                 	.MACRO __GETD1S
                 	LDD  R30,Y+@0
                 	LDD  R31,Y+@0+1
                 	LDD  R22,Y+@0+2
                 	LDD  R23,Y+@0+3
                 	.ENDM
                 
                 	.MACRO __GETD2S
                 	LDD  R26,Y+@0
                 	LDD  R27,Y+@0+1
                 	LDD  R24,Y+@0+2
                 	LDD  R25,Y+@0+3
                 	.ENDM
                 
                 	.MACRO __PUTD1S
                 	STD  Y+@0,R30
                 	STD  Y+@0+1,R31
                 	STD  Y+@0+2,R22
                 	STD  Y+@0+3,R23
                 	.ENDM
                 
                 	.MACRO __PUTD2S
                 	STD  Y+@0,R26
                 	STD  Y+@0+1,R27
                 	STD  Y+@0+2,R24
                 	STD  Y+@0+3,R25
                 	.ENDM
                 
                 	.MACRO __PUTDZ2
                 	STD  Z+@0,R26
                 	STD  Z+@0+1,R27
                 	STD  Z+@0+2,R24
                 	STD  Z+@0+3,R25
                 	.ENDM
                 
                 	.MACRO __CLRD1S
                 	STD  Y+@0,R30
                 	STD  Y+@0+1,R30
                 	STD  Y+@0+2,R30
                 	STD  Y+@0+3,R30
                 	.ENDM
                 
                 	.MACRO __POINTB1MN
                 	LDI  R30,LOW(@0+(@1))
                 	.ENDM
                 
                 	.MACRO __POINTW1MN
                 	LDI  R30,LOW(@0+(@1))
                 	LDI  R31,HIGH(@0+(@1))
                 	.ENDM
                 
                 	.MACRO __POINTD1M
                 	LDI  R30,LOW(@0)
                 	LDI  R31,HIGH(@0)
                 	LDI  R22,BYTE3(@0)
                 	LDI  R23,BYTE4(@0)
                 	.ENDM
                 
                 	.MACRO __POINTW1FN
                 	LDI  R30,LOW(2*@0+(@1))
                 	LDI  R31,HIGH(2*@0+(@1))
                 	.ENDM
                 
                 	.MACRO __POINTD1FN
                 	LDI  R30,LOW(2*@0+(@1))
                 	LDI  R31,HIGH(2*@0+(@1))
                 	LDI  R22,BYTE3(2*@0+(@1))
                 	LDI  R23,BYTE4(2*@0+(@1))
                 	.ENDM
                 
                 	.MACRO __POINTB2MN
                 	LDI  R26,LOW(@0+(@1))
                 	.ENDM
                 
                 	.MACRO __POINTW2MN
                 	LDI  R26,LOW(@0+(@1))
                 	LDI  R27,HIGH(@0+(@1))
                 	.ENDM
                 
                 	.MACRO __POINTW2FN
                 	LDI  R26,LOW(2*@0+(@1))
                 	LDI  R27,HIGH(2*@0+(@1))
                 	.ENDM
                 
                 	.MACRO __POINTD2FN
                 	LDI  R26,LOW(2*@0+(@1))
                 	LDI  R27,HIGH(2*@0+(@1))
                 	LDI  R24,BYTE3(2*@0+(@1))
                 	LDI  R25,BYTE4(2*@0+(@1))
                 	.ENDM
                 
                 	.MACRO __POINTBRM
                 	LDI  R@0,LOW(@1)
                 	.ENDM
                 
                 	.MACRO __POINTWRM
                 	LDI  R@0,LOW(@2)
                 	LDI  R@1,HIGH(@2)
                 	.ENDM
                 
                 	.MACRO __POINTBRMN
                 	LDI  R@0,LOW(@1+(@2))
                 	.ENDM
                 
                 	.MACRO __POINTWRMN
                 	LDI  R@0,LOW(@2+(@3))
                 	LDI  R@1,HIGH(@2+(@3))
                 	.ENDM
                 
                 	.MACRO __POINTWRFN
                 	LDI  R@0,LOW(@2*2+(@3))
                 	LDI  R@1,HIGH(@2*2+(@3))
                 	.ENDM
                 
                 	.MACRO __GETD1N
                 	LDI  R30,LOW(@0)
                 	LDI  R31,HIGH(@0)
                 	LDI  R22,BYTE3(@0)
                 	LDI  R23,BYTE4(@0)
                 	.ENDM
                 
                 	.MACRO __GETD2N
                 	LDI  R26,LOW(@0)
                 	LDI  R27,HIGH(@0)
                 	LDI  R24,BYTE3(@0)
                 	LDI  R25,BYTE4(@0)
                 	.ENDM
                 
                 	.MACRO __GETB1MN
                 	LDS  R30,@0+(@1)
                 	.ENDM
                 
                 	.MACRO __GETB1HMN
                 	LDS  R31,@0+(@1)
                 	.ENDM
                 
                 	.MACRO __GETW1MN
                 	LDS  R30,@0+(@1)
                 	LDS  R31,@0+(@1)+1
                 	.ENDM
                 
                 	.MACRO __GETD1MN
                 	LDS  R30,@0+(@1)
                 	LDS  R31,@0+(@1)+1
                 	LDS  R22,@0+(@1)+2
                 	LDS  R23,@0+(@1)+3
                 	.ENDM
                 
                 	.MACRO __GETBRMN
                 	LDS  R@0,@1+(@2)
                 	.ENDM
                 
                 	.MACRO __GETWRMN
                 	LDS  R@0,@2+(@3)
                 	LDS  R@1,@2+(@3)+1
                 	.ENDM
                 
                 	.MACRO __GETWRZ
                 	LDD  R@0,Z+@2
                 	LDD  R@1,Z+@2+1
                 	.ENDM
                 
                 	.MACRO __GETD2Z
                 	LDD  R26,Z+@0
                 	LDD  R27,Z+@0+1
                 	LDD  R24,Z+@0+2
                 	LDD  R25,Z+@0+3
                 	.ENDM
                 
                 	.MACRO __GETB2MN
                 	LDS  R26,@0+(@1)
                 	.ENDM
                 
                 	.MACRO __GETW2MN
                 	LDS  R26,@0+(@1)
                 	LDS  R27,@0+(@1)+1
                 	.ENDM
                 
                 	.MACRO __GETD2MN
                 	LDS  R26,@0+(@1)
                 	LDS  R27,@0+(@1)+1
                 	LDS  R24,@0+(@1)+2
                 	LDS  R25,@0+(@1)+3
                 	.ENDM
                 
                 	.MACRO __PUTB1MN
                 	STS  @0+(@1),R30
                 	.ENDM
                 
                 	.MACRO __PUTW1MN
                 	STS  @0+(@1),R30
                 	STS  @0+(@1)+1,R31
                 	.ENDM
                 
                 	.MACRO __PUTD1MN
                 	STS  @0+(@1),R30
                 	STS  @0+(@1)+1,R31
                 	STS  @0+(@1)+2,R22
                 	STS  @0+(@1)+3,R23
                 	.ENDM
                 
                 	.MACRO __PUTB1EN
                 	LDI  R26,LOW(@0+(@1))
                 	LDI  R27,HIGH(@0+(@1))
                 	CALL __EEPROMWRB
                 	.ENDM
                 
                 	.MACRO __PUTW1EN
                 	LDI  R26,LOW(@0+(@1))
                 	LDI  R27,HIGH(@0+(@1))
                 	CALL __EEPROMWRW
                 	.ENDM
                 
                 	.MACRO __PUTD1EN
                 	LDI  R26,LOW(@0+(@1))
                 	LDI  R27,HIGH(@0+(@1))
                 	CALL __EEPROMWRD
                 	.ENDM
                 
                 	.MACRO __PUTBR0MN
                 	STS  @0+(@1),R0
                 	.ENDM
                 
                 	.MACRO __PUTBMRN
                 	STS  @0+(@1),R@2
                 	.ENDM
                 
                 	.MACRO __PUTWMRN
                 	STS  @0+(@1),R@2
                 	STS  @0+(@1)+1,R@3
                 	.ENDM
                 
                 	.MACRO __PUTBZR
                 	STD  Z+@1,R@0
                 	.ENDM
                 
                 	.MACRO __PUTWZR
                 	STD  Z+@2,R@0
                 	STD  Z+@2+1,R@1
                 	.ENDM
                 
                 	.MACRO __GETW1R
                 	MOV  R30,R@0
                 	MOV  R31,R@1
                 	.ENDM
                 
                 	.MACRO __GETW2R
                 	MOV  R26,R@0
                 	MOV  R27,R@1
                 	.ENDM
                 
                 	.MACRO __GETWRN
                 	LDI  R@0,LOW(@2)
                 	LDI  R@1,HIGH(@2)
                 	.ENDM
                 
                 	.MACRO __PUTW1R
                 	MOV  R@0,R30
                 	MOV  R@1,R31
                 	.ENDM
                 
                 	.MACRO __PUTW2R
                 	MOV  R@0,R26
                 	MOV  R@1,R27
                 	.ENDM
                 
                 	.MACRO __ADDWRN
                 	SUBI R@0,LOW(-@2)
                 	SBCI R@1,HIGH(-@2)
                 	.ENDM
                 
                 	.MACRO __ADDWRR
                 	ADD  R@0,R@2
                 	ADC  R@1,R@3
                 	.ENDM
                 
                 	.MACRO __SUBWRN
                 	SUBI R@0,LOW(@2)
                 	SBCI R@1,HIGH(@2)
                 	.ENDM
                 
                 	.MACRO __SUBWRR
                 	SUB  R@0,R@2
                 	SBC  R@1,R@3
                 	.ENDM
                 
                 	.MACRO __ANDWRN
                 	ANDI R@0,LOW(@2)
                 	ANDI R@1,HIGH(@2)
                 	.ENDM
                 
                 	.MACRO __ANDWRR
                 	AND  R@0,R@2
                 	AND  R@1,R@3
                 	.ENDM
                 
                 	.MACRO __ORWRN
                 	ORI  R@0,LOW(@2)
                 	ORI  R@1,HIGH(@2)
                 	.ENDM
                 
                 	.MACRO __ORWRR
                 	OR   R@0,R@2
                 	OR   R@1,R@3
                 	.ENDM
                 
                 	.MACRO __EORWRR
                 	EOR  R@0,R@2
                 	EOR  R@1,R@3
                 	.ENDM
                 
                 	.MACRO __GETWRS
                 	LDD  R@0,Y+@2
                 	LDD  R@1,Y+@2+1
                 	.ENDM
                 
                 	.MACRO __PUTBSR
                 	STD  Y+@1,R@0
                 	.ENDM
                 
                 	.MACRO __PUTWSR
                 	STD  Y+@2,R@0
                 	STD  Y+@2+1,R@1
                 	.ENDM
                 
                 	.MACRO __MOVEWRR
                 	MOV  R@0,R@2
                 	MOV  R@1,R@3
                 	.ENDM
                 
                 	.MACRO __INWR
                 	IN   R@0,@2
                 	IN   R@1,@2+1
                 	.ENDM
                 
                 	.MACRO __OUTWR
                 	OUT  @2+1,R@1
                 	OUT  @2,R@0
                 	.ENDM
                 
                 	.MACRO __CALL1MN
                 	LDS  R30,@0+(@1)
                 	LDS  R31,@0+(@1)+1
                 	ICALL
                 	.ENDM
                 
                 	.MACRO __CALL1FN
                 	LDI  R30,LOW(2*@0+(@1))
                 	LDI  R31,HIGH(2*@0+(@1))
                 	CALL __GETW1PF
                 	ICALL
                 	.ENDM
                 
                 	.MACRO __CALL2EN
                 	PUSH R26
                 	PUSH R27
                 	LDI  R26,LOW(@0+(@1))
                 	LDI  R27,HIGH(@0+(@1))
                 	CALL __EEPROMRDW
                 	POP  R27
                 	POP  R26
                 	ICALL
                 	.ENDM
                 
                 	.MACRO __CALL2EX
                 	SUBI R26,LOW(-@0)
                 	SBCI R27,HIGH(-@0)
                 	CALL __EEPROMRDD
                 	ICALL
                 	.ENDM
                 
                 	.MACRO __GETW1STACK
                 	IN   R30,SPL
                 	IN   R31,SPH
                 	ADIW R30,@0+1
                 	LD   R0,Z+
                 	LD   R31,Z
                 	MOV  R30,R0
                 	.ENDM
                 
                 	.MACRO __GETD1STACK
                 	IN   R30,SPL
                 	IN   R31,SPH
                 	ADIW R30,@0+1
                 	LD   R0,Z+
                 	LD   R1,Z+
                 	LD   R22,Z
                 	MOVW R30,R0
                 	.ENDM
                 
                 	.MACRO __NBST
                 	BST  R@0,@1
                 	IN   R30,SREG
                 	LDI  R31,0x40
                 	EOR  R30,R31
                 	OUT  SREG,R30
                 	.ENDM
                 
                 
                 	.MACRO __PUTB1SN
                 	LDD  R26,Y+@0
                 	LDD  R27,Y+@0+1
                 	SUBI R26,LOW(-@1)
                 	SBCI R27,HIGH(-@1)
                 	ST   X,R30
                 	.ENDM
                 
                 	.MACRO __PUTW1SN
                 	LDD  R26,Y+@0
                 	LDD  R27,Y+@0+1
                 	SUBI R26,LOW(-@1)
                 	SBCI R27,HIGH(-@1)
                 	ST   X+,R30
                 	ST   X,R31
                 	.ENDM
                 
                 	.MACRO __PUTD1SN
                 	LDD  R26,Y+@0
                 	LDD  R27,Y+@0+1
                 	SUBI R26,LOW(-@1)
                 	SBCI R27,HIGH(-@1)
                 	CALL __PUTDP1
                 	.ENDM
                 
                 	.MACRO __PUTB1SNS
                 	LDD  R26,Y+@0
                 	LDD  R27,Y+@0+1
                 	ADIW R26,@1
                 	ST   X,R30
                 	.ENDM
                 
                 	.MACRO __PUTW1SNS
                 	LDD  R26,Y+@0
                 	LDD  R27,Y+@0+1
                 	ADIW R26,@1
                 	ST   X+,R30
                 	ST   X,R31
                 	.ENDM
                 
                 	.MACRO __PUTD1SNS
                 	LDD  R26,Y+@0
                 	LDD  R27,Y+@0+1
                 	ADIW R26,@1
                 	CALL __PUTDP1
                 	.ENDM
                 
                 	.MACRO __PUTB1PMN
                 	LDS  R26,@0
                 	LDS  R27,@0+1
                 	SUBI R26,LOW(-@1)
                 	SBCI R27,HIGH(-@1)
                 	ST   X,R30
                 	.ENDM
                 
                 	.MACRO __PUTW1PMN
                 	LDS  R26,@0
                 	LDS  R27,@0+1
                 	SUBI R26,LOW(-@1)
                 	SBCI R27,HIGH(-@1)
                 	ST   X+,R30
                 	ST   X,R31
                 	.ENDM
                 
                 	.MACRO __PUTD1PMN
                 	LDS  R26,@0
                 	LDS  R27,@0+1
                 	SUBI R26,LOW(-@1)
                 	SBCI R27,HIGH(-@1)
                 	CALL __PUTDP1
                 	.ENDM
                 
                 	.MACRO __PUTB1PMNS
                 	LDS  R26,@0
                 	LDS  R27,@0+1
                 	ADIW R26,@1
                 	ST   X,R30
                 	.ENDM
                 
                 	.MACRO __PUTW1PMNS
                 	LDS  R26,@0
                 	LDS  R27,@0+1
                 	ADIW R26,@1
                 	ST   X+,R30
                 	ST   X,R31
                 	.ENDM
                 
                 	.MACRO __PUTD1PMNS
                 	LDS  R26,@0
                 	LDS  R27,@0+1
                 	ADIW R26,@1
                 	CALL __PUTDP1
                 	.ENDM
                 
                 	.MACRO __PUTB1RN
                 	MOVW R26,R@0
                 	SUBI R26,LOW(-@1)
                 	SBCI R27,HIGH(-@1)
                 	ST   X,R30
                 	.ENDM
                 
                 	.MACRO __PUTW1RN
                 	MOVW R26,R@0
                 	SUBI R26,LOW(-@1)
                 	SBCI R27,HIGH(-@1)
                 	ST   X+,R30
                 	ST   X,R31
                 	.ENDM
                 
                 	.MACRO __PUTD1RN
                 	MOVW R26,R@0
                 	SUBI R26,LOW(-@1)
                 	SBCI R27,HIGH(-@1)
                 	CALL __PUTDP1
                 	.ENDM
                 
                 	.MACRO __PUTB1RNS
                 	MOVW R26,R@0
                 	ADIW R26,@1
                 	ST   X,R30
                 	.ENDM
                 
                 	.MACRO __PUTW1RNS
                 	MOVW R26,R@0
                 	ADIW R26,@1
                 	ST   X+,R30
                 	ST   X,R31
                 	.ENDM
                 
                 	.MACRO __PUTD1RNS
                 	MOVW R26,R@0
                 	ADIW R26,@1
                 	CALL __PUTDP1
                 	.ENDM
                 
                 	.MACRO __PUTB1RON
                 	MOV  R26,R@0
                 	MOV  R27,R@1
                 	SUBI R26,LOW(-@2)
                 	SBCI R27,HIGH(-@2)
                 	ST   X,R30
                 	.ENDM
                 
                 	.MACRO __PUTW1RON
                 	MOV  R26,R@0
                 	MOV  R27,R@1
                 	SUBI R26,LOW(-@2)
                 	SBCI R27,HIGH(-@2)
                 	ST   X+,R30
                 	ST   X,R31
                 	.ENDM
                 
                 	.MACRO __PUTD1RON
                 	MOV  R26,R@0
                 	MOV  R27,R@1
                 	SUBI R26,LOW(-@2)
                 	SBCI R27,HIGH(-@2)
                 	CALL __PUTDP1
                 	.ENDM
                 
                 	.MACRO __PUTB1RONS
                 	MOV  R26,R@0
                 	MOV  R27,R@1
                 	ADIW R26,@2
                 	ST   X,R30
                 	.ENDM
                 
                 	.MACRO __PUTW1RONS
                 	MOV  R26,R@0
                 	MOV  R27,R@1
                 	ADIW R26,@2
                 	ST   X+,R30
                 	ST   X,R31
                 	.ENDM
                 
                 	.MACRO __PUTD1RONS
                 	MOV  R26,R@0
                 	MOV  R27,R@1
                 	ADIW R26,@2
                 	CALL __PUTDP1
                 	.ENDM
                 
                 
                 	.MACRO __GETB1SX
                 	MOVW R30,R28
                 	SUBI R30,LOW(-@0)
                 	SBCI R31,HIGH(-@0)
                 	LD   R30,Z
                 	.ENDM
                 
                 	.MACRO __GETB1HSX
                 	MOVW R30,R28
                 	SUBI R30,LOW(-@0)
                 	SBCI R31,HIGH(-@0)
                 	LD   R31,Z
                 	.ENDM
                 
                 	.MACRO __GETW1SX
                 	MOVW R30,R28
                 	SUBI R30,LOW(-@0)
                 	SBCI R31,HIGH(-@0)
                 	LD   R0,Z+
                 	LD   R31,Z
                 	MOV  R30,R0
                 	.ENDM
                 
                 	.MACRO __GETD1SX
                 	MOVW R30,R28
                 	SUBI R30,LOW(-@0)
                 	SBCI R31,HIGH(-@0)
                 	LD   R0,Z+
                 	LD   R1,Z+
                 	LD   R22,Z+
                 	LD   R23,Z
                 	MOVW R30,R0
                 	.ENDM
                 
                 	.MACRO __GETB2SX
                 	MOVW R26,R28
                 	SUBI R26,LOW(-@0)
                 	SBCI R27,HIGH(-@0)
                 	LD   R26,X
                 	.ENDM
                 
                 	.MACRO __GETW2SX
                 	MOVW R26,R28
                 	SUBI R26,LOW(-@0)
                 	SBCI R27,HIGH(-@0)
                 	LD   R0,X+
                 	LD   R27,X
                 	MOV  R26,R0
                 	.ENDM
                 
                 	.MACRO __GETD2SX
                 	MOVW R26,R28
                 	SUBI R26,LOW(-@0)
                 	SBCI R27,HIGH(-@0)
                 	LD   R0,X+
                 	LD   R1,X+
                 	LD   R24,X+
                 	LD   R25,X
                 	MOVW R26,R0
                 	.ENDM
                 
                 	.MACRO __GETBRSX
                 	MOVW R30,R28
                 	SUBI R30,LOW(-@1)
                 	SBCI R31,HIGH(-@1)
                 	LD   R@0,Z
                 	.ENDM
                 
                 	.MACRO __GETWRSX
                 	MOVW R30,R28
                 	SUBI R30,LOW(-@2)
                 	SBCI R31,HIGH(-@2)
                 	LD   R@0,Z+
                 	LD   R@1,Z
                 	.ENDM
                 
                 	.MACRO __GETBRSX2
                 	MOVW R26,R28
                 	SUBI R26,LOW(-@1)
                 	SBCI R27,HIGH(-@1)
                 	LD   R@0,X
                 	.ENDM
                 
                 	.MACRO __GETWRSX2
                 	MOVW R26,R28
                 	SUBI R26,LOW(-@2)
                 	SBCI R27,HIGH(-@2)
                 	LD   R@0,X+
                 	LD   R@1,X
                 	.ENDM
                 
                 	.MACRO __LSLW8SX
                 	MOVW R30,R28
                 	SUBI R30,LOW(-@0)
                 	SBCI R31,HIGH(-@0)
                 	LD   R31,Z
                 	CLR  R30
                 	.ENDM
                 
                 	.MACRO __PUTB1SX
                 	MOVW R26,R28
                 	SUBI R26,LOW(-@0)
                 	SBCI R27,HIGH(-@0)
                 	ST   X,R30
                 	.ENDM
                 
                 	.MACRO __PUTW1SX
                 	MOVW R26,R28
                 	SUBI R26,LOW(-@0)
                 	SBCI R27,HIGH(-@0)
                 	ST   X+,R30
                 	ST   X,R31
                 	.ENDM
                 
                 	.MACRO __PUTD1SX
                 	MOVW R26,R28
                 	SUBI R26,LOW(-@0)
                 	SBCI R27,HIGH(-@0)
                 	ST   X+,R30
                 	ST   X+,R31
                 	ST   X+,R22
                 	ST   X,R23
                 	.ENDM
                 
                 	.MACRO __CLRW1SX
                 	MOVW R26,R28
                 	SUBI R26,LOW(-@0)
                 	SBCI R27,HIGH(-@0)
                 	ST   X+,R30
                 	ST   X,R30
                 	.ENDM
                 
                 	.MACRO __CLRD1SX
                 	MOVW R26,R28
                 	SUBI R26,LOW(-@0)
                 	SBCI R27,HIGH(-@0)
                 	ST   X+,R30
                 	ST   X+,R30
                 	ST   X+,R30
                 	ST   X,R30
                 	.ENDM
                 
                 	.MACRO __PUTB2SX
                 	MOVW R30,R28
                 	SUBI R30,LOW(-@0)
                 	SBCI R31,HIGH(-@0)
                 	ST   Z,R26
                 	.ENDM
                 
                 	.MACRO __PUTW2SX
                 	MOVW R30,R28
                 	SUBI R30,LOW(-@0)
                 	SBCI R31,HIGH(-@0)
                 	ST   Z+,R26
                 	ST   Z,R27
                 	.ENDM
                 
                 	.MACRO __PUTD2SX
                 	MOVW R30,R28
                 	SUBI R30,LOW(-@0)
                 	SBCI R31,HIGH(-@0)
                 	ST   Z+,R26
                 	ST   Z+,R27
                 	ST   Z+,R24
                 	ST   Z,R25
                 	.ENDM
                 
                 	.MACRO __PUTBSRX
                 	MOVW R30,R28
                 	SUBI R30,LOW(-@1)
                 	SBCI R31,HIGH(-@1)
                 	ST   Z,R@0
                 	.ENDM
                 
                 	.MACRO __PUTWSRX
                 	MOVW R30,R28
                 	SUBI R30,LOW(-@2)
                 	SBCI R31,HIGH(-@2)
                 	ST   Z+,R@0
                 	ST   Z,R@1
                 	.ENDM
                 
                 	.MACRO __PUTB1SNX
                 	MOVW R26,R28
                 	SUBI R26,LOW(-@0)
                 	SBCI R27,HIGH(-@0)
                 	LD   R0,X+
                 	LD   R27,X
                 	MOV  R26,R0
                 	SUBI R26,LOW(-@1)
                 	SBCI R27,HIGH(-@1)
                 	ST   X,R30
                 	.ENDM
                 
                 	.MACRO __PUTW1SNX
                 	MOVW R26,R28
                 	SUBI R26,LOW(-@0)
                 	SBCI R27,HIGH(-@0)
                 	LD   R0,X+
                 	LD   R27,X
                 	MOV  R26,R0
                 	SUBI R26,LOW(-@1)
                 	SBCI R27,HIGH(-@1)
                 	ST   X+,R30
                 	ST   X,R31
                 	.ENDM
                 
                 	.MACRO __PUTD1SNX
                 	MOVW R26,R28
                 	SUBI R26,LOW(-@0)
                 	SBCI R27,HIGH(-@0)
                 	LD   R0,X+
                 	LD   R27,X
                 	MOV  R26,R0
                 	SUBI R26,LOW(-@1)
                 	SBCI R27,HIGH(-@1)
                 	ST   X+,R30
                 	ST   X+,R31
                 	ST   X+,R22
                 	ST   X,R23
                 	.ENDM
                 
                 	.MACRO __MULBRR
                 	MULS R@0,R@1
                 	MOVW R30,R0
                 	.ENDM
                 
                 	.MACRO __MULBRRU
                 	MUL  R@0,R@1
                 	MOVW R30,R0
                 	.ENDM
                 
                 	.MACRO __MULBRR0
                 	MULS R@0,R@1
                 	.ENDM
                 
                 	.MACRO __MULBRRU0
                 	MUL  R@0,R@1
                 	.ENDM
                 
                 	.MACRO __MULBNWRU
                 	LDI  R26,@2
                 	MUL  R26,R@0
                 	MOVW R30,R0
                 	MUL  R26,R@1
                 	ADD  R31,R0
                 	.ENDM
                 
                 ;NAME DEFINITIONS FOR GLOBAL VARIABLES ALLOCATED TO REGISTERS
                 	.DEF _nPreset_1=R5
                 	.DEF _nPreset_2=R4
                 	.DEF _nPreset_3=R7
                 	.DEF _nPreset_4=R6
                 	.DEF _nPreset_5=R9
                 	.DEF _nPreset_6=R8
                 	.DEF _nPreset_7=R11
                 	.DEF _nPreset_8=R10
                 	.DEF _ucPC_sw=R13
                 	.DEF _ucFX1_sw=R12
                 
                 	.CSEG
                 	.ORG 0x00
                 
                 ;START OF CODE MARKER
                 __START_OF_CODE:
                 
                 ;INTERRUPT VECTORS
000000 940c 006d 	JMP  __RESET
000002 940c 0000 	JMP  0x00
000004 940c 0000 	JMP  0x00
000006 940c 0000 	JMP  0x00
000008 940c 0000 	JMP  0x00
00000a 940c 0000 	JMP  0x00
00000c 940c 0000 	JMP  0x00
00000e 940c 0000 	JMP  0x00
000010 940c 0000 	JMP  0x00
000012 940c 0000 	JMP  0x00
000014 940c 0000 	JMP  0x00
000016 940c 0000 	JMP  0x00
000018 940c 0000 	JMP  0x00
00001a 940c 0000 	JMP  0x00
00001c 940c 0000 	JMP  0x00
00001e 940c 0000 	JMP  0x00
000020 940c 0000 	JMP  0x00
000022 940c 0000 	JMP  0x00
000024 940c 0000 	JMP  0x00
000026 940c 0000 	JMP  0x00
000028 940c 0000 	JMP  0x00
                 
                 _tbl10_G102:
00002a 2710
00002b 03e8
00002c 0064
00002d 000a      	.DB  0x10,0x27,0xE8,0x3,0x64,0x0,0xA,0x0
00002e 0001      	.DB  0x1,0x0
                 _tbl16_G102:
00002f 1000
000030 0100
000031 0010
000032 0001      	.DB  0x0,0x10,0x0,0x1,0x10,0x0,0x1,0x0
                 
                 ;GLOBAL REGISTER VARIABLES INITIALIZATION
                 __REG_VARS:
000033 0000
000034 0000      	.DB  0x0,0x0,0x0,0x0
000035 0000
000036 0000      	.DB  0x0,0x0,0x0,0x0
000037 0000      	.DB  0x0,0x0
                 
                 _0x3:
C:\Users\Vovan\Desktop\midifs\Debug\List\midifs.asm(1141): warning: .cseg .db misalignment - padding zero byte
000038 0001      	.DB  0x1
                 _0x4:
C:\Users\Vovan\Desktop\midifs\Debug\List\midifs.asm(1143): warning: .cseg .db misalignment - padding zero byte
000039 0001      	.DB  0x1
                 _0x0:
00003a 4350
00003b 4300
00003c 0043
00003d 2020      	.DB  0x50,0x43,0x0,0x43,0x43,0x0,0x20,0x20
00003e 3c00
00003f 3e00
000040 5300
000041 7661      	.DB  0x0,0x3C,0x0,0x3E,0x0,0x53,0x61,0x76
000042 2065
000043 6f74
000044 6220
000045 6e61      	.DB  0x65,0x20,0x74,0x6F,0x20,0x62,0x61,0x6E
000046 236b
000047 0020
000048 6f4c
000049 6461      	.DB  0x6B,0x23,0x20,0x0,0x4C,0x6F,0x61,0x64
00004a 6220
00004b 6e61
00004c 236b
00004d 0020      	.DB  0x20,0x62,0x61,0x6E,0x6B,0x23,0x20,0x0
00004e 6158
00004f 4c6e
000050 6261
000051 4620      	.DB  0x58,0x61,0x6E,0x4C,0x61,0x62,0x20,0x46
000052 2053
000053 3276
000054 302e
C:\Users\Vovan\Desktop\midifs\Debug\List\midifs.asm(1151): warning: .cseg .db misalignment - padding zero byte
000055 0000      	.DB  0x53,0x20,0x76,0x32,0x2E,0x30,0x0
                 _0x2000003:
000056 c080      	.DB  0x80,0xC0
                 _0x2020060:
C:\Users\Vovan\Desktop\midifs\Debug\List\midifs.asm(1155): warning: .cseg .db misalignment - padding zero byte
000057 0001      	.DB  0x1
                 _0x2020000:
000058 4e2d
000059 4e41
00005a 4900
00005b 464e      	.DB  0x2D,0x4E,0x41,0x4E,0x0,0x49,0x4E,0x46
C:\Users\Vovan\Desktop\midifs\Debug\List\midifs.asm(1158): warning: .cseg .db misalignment - padding zero byte
00005c 0000      	.DB  0x0
                 
                 __GLOBAL_INI_TBL:
00005d 000a      	.DW  0x0A
00005e 0004      	.DW  0x04
00005f 0066      	.DW  __REG_VARS*2
                 
000060 0001      	.DW  0x01
000061 016b      	.DW  _CurPreset
000062 0070      	.DW  _0x3*2
                 
000063 0001      	.DW  0x01
000064 016d      	.DW  _nBnkNum
000065 0072      	.DW  _0x4*2
                 
000066 0002      	.DW  0x02
000067 016e      	.DW  __base_y_G100
000068 00ac      	.DW  _0x2000003*2
                 
000069 0001      	.DW  0x01
00006a 0175      	.DW  __seed_G101
00006b 00ae      	.DW  _0x2020060*2
                 
                 _0xFFFFFFFF:
00006c 0000      	.DW  0
                 
                 #define __GLOBAL_INI_TBL_PRESENT 1
                 
                 __RESET:
00006d 94f8      	CLI
00006e 27ee      	CLR  R30
00006f bbec      	OUT  EECR,R30
                 
                 ;INTERRUPT VECTORS ARE PLACED
                 ;AT THE START OF FLASH
000070 e0f1      	LDI  R31,1
000071 bffb      	OUT  GICR,R31
000072 bfeb      	OUT  GICR,R30
000073 bfe5      	OUT  MCUCR,R30
                 
                 ;CLEAR R2-R14
000074 e08d      	LDI  R24,(14-2)+1
000075 e0a2      	LDI  R26,2
000076 27bb      	CLR  R27
                 __CLEAR_REG:
000077 93ed      	ST   X+,R30
000078 958a      	DEC  R24
000079 f7e9      	BRNE __CLEAR_REG
                 
                 ;CLEAR SRAM
00007a e080      	LDI  R24,LOW(__CLEAR_SRAM_SIZE)
00007b e094      	LDI  R25,HIGH(__CLEAR_SRAM_SIZE)
00007c e6a0      	LDI  R26,__SRAM_START
                 __CLEAR_SRAM:
00007d 93ed      	ST   X+,R30
00007e 9701      	SBIW R24,1
00007f f7e9      	BRNE __CLEAR_SRAM
                 
                 ;GLOBAL VARIABLES INITIALIZATION
000080 ebea      	LDI  R30,LOW(__GLOBAL_INI_TBL*2)
000081 e0f0      	LDI  R31,HIGH(__GLOBAL_INI_TBL*2)
                 __GLOBAL_INI_NEXT:
000082 9185      	LPM  R24,Z+
000083 9195      	LPM  R25,Z+
000084 9700      	SBIW R24,0
000085 f061      	BREQ __GLOBAL_INI_END
000086 91a5      	LPM  R26,Z+
000087 91b5      	LPM  R27,Z+
000088 9005      	LPM  R0,Z+
000089 9015      	LPM  R1,Z+
00008a 01bf      	MOVW R22,R30
00008b 01f0      	MOVW R30,R0
                 __GLOBAL_INI_LOOP:
00008c 9005      	LPM  R0,Z+
00008d 920d      	ST   X+,R0
00008e 9701      	SBIW R24,1
00008f f7e1      	BRNE __GLOBAL_INI_LOOP
000090 01fb      	MOVW R30,R22
000091 cff0      	RJMP __GLOBAL_INI_NEXT
                 __GLOBAL_INI_END:
                 
                 ;HARDWARE STACK POINTER INITIALIZATION
000092 e5ef      	LDI  R30,LOW(__SRAM_END-__HEAP_SIZE)
000093 bfed      	OUT  SPL,R30
000094 e0e4      	LDI  R30,HIGH(__SRAM_END-__HEAP_SIZE)
000095 bfee      	OUT  SPH,R30
                 
                 ;DATA STACK POINTER INITIALIZATION
000096 e6c0      	LDI  R28,LOW(__SRAM_START+__DSTACK_SIZE)
000097 e0d1      	LDI  R29,HIGH(__SRAM_START+__DSTACK_SIZE)
                 
000098 940c 01a3 	JMP  _main
                 
                 	.ESEG
                 	.ORG 0
                 
                 	.DSEG
                 	.ORG 0x160
                 
                 	.CSEG
                 ;/*****************************************************
                 ;This program was produced by the
                 ;CodeWizardAVR V2.03.8a Evaluation
                 ;Automatic Program Generator
                 ;© Copyright 1998-2008 Pavel Haiduc, HP InfoTech s.r.l.
                 ;http://www.hpinfotech.com
                 ;
                 ;Project :
                 ;Version :
                 ;Date    : 21.11.2008
                 ;Author  : Freeware, for evaluation and non-commercial use only
                 ;Company :
                 ;Comments:
                 ;
                 ;
                 ;Chip type           : ATmega16L
                 ;Program type        : Application
                 ;Clock frequency     : 4,000000 MHz
                 ;Memory model        : Small
                 ;External RAM size   : 0
                 ;Data Stack size     : 256
                 ;*****************************************************/
                 ;
                 ;#include <mega16a.h>
                 	#ifndef __SLEEP_DEFINED__
                 	#define __SLEEP_DEFINED__
                 	.EQU __se_bit=0x40
                 	.EQU __sm_mask=0xB0
                 	.EQU __sm_powerdown=0x20
                 	.EQU __sm_powersave=0x30
                 	.EQU __sm_standby=0xA0
                 	.EQU __sm_ext_standby=0xB0
                 	.EQU __sm_adc_noise_red=0x10
                 	.SET power_ctrl_reg=mcucr
                 	#endif
                 ;
                 ;// Alphanumeric LCD Module functions
                 ;#asm
                    .equ __lcd_port=0x15 ;PORTC
                 ; 0000 001D #endasm
                 ;#include <lcd.h>
                 ;
                 ;#include <stdlib.h>
                 ;#include <delay.h>
                 ;
                 ;// Standard Input/Output functions
                 ;#include <stdio.h>
                 ;
                 ;#define BUTTON_DELAY 300 // ms
                 ;
                 ;
                 ;//номер миди контроллера для каждой функции устройства (можно сделать настраиваемым, но пока жестко закреплено)
                 ;#define FX1 64 // для остальных кнопок(кроме кнопок смены программ)
                 ;#define FX2 65
                 ;#define FX3 66
                 ;#define FX4 67
                 ;#define FX5 68
                 ;#define FX6 69
                 ;#define FX7 70
                 ;#define FX8 71
                 ;#define EXP 11
                 ;
                 ;//Закрепление определенных функций за конкретными контактами мк
                 ;//конфигурационные кнопки
                 ;#define s_inc_sw    PINB.0
                 ;#define s_dec_sw    PINB.1
                 ;#define s_save_sw   PINB.2
                 ;#define s_load_sw   PINB.3
                 ;//кнопки смены программ(пресетов)
                 ;#define P1_sw       PINA.0
                 ;#define P2_sw       PINA.1
                 ;#define P3_sw       PINA.2
                 ;#define P4_sw       PINA.3
                 ;#define P5_sw       PINA.4
                 ;#define P6_sw       PINA.5
                 ;#define P7_sw       PINA.6
                 ;#define P8_sw       PIND.3
                 ;#define PC_sw       PIND.4
                 ;
                 ;//Пока поддерживается только 10 банков настроек
                 ;//Настройки хранятся в энергонезависимой памяти
                 ;//Эти значения(нули) запишутся в память при программировании,
                 ;//далее при включении/выключении железяки будут хранить настроенное значение
                 ;eeprom unsigned char ucP1[10] = {0,0,0,0,0,0,0,0,0,0};
                 ;eeprom unsigned char ucP2[10] = {0,0,0,0,0,0,0,0,0,0};
                 ;eeprom unsigned char ucP3[10] = {0,0,0,0,0,0,0,0,0,0};
                 ;eeprom unsigned char ucP4[10] = {0,0,0,0,0,0,0,0,0,0};
                 ;eeprom unsigned char ucP5[10] = {0,0,0,0,0,0,0,0,0,0};
                 ;eeprom unsigned char ucP6[10] = {0,0,0,0,0,0,0,0,0,0};
                 ;eeprom unsigned char ucP7[10] = {0,0,0,0,0,0,0,0,0,0};
                 ;eeprom unsigned char ucP8[10] = {0,0,0,0,0,0,0,0,0,0};
                 ;
                 ;
                 ;//4 переключаемых программы(пресета)
                 ;unsigned char nPreset_1 = 0;
                 ;unsigned char nPreset_2 = 0;
                 ;unsigned char nPreset_3 = 0;
                 ;unsigned char nPreset_4 = 0;
                 ;unsigned char nPreset_5 = 0;
                 ;unsigned char nPreset_6 = 0;
                 ;unsigned char nPreset_7 = 0;
                 ;unsigned char nPreset_8 = 0;
                 ;unsigned char ucPC_sw = 0;
                 ;
                 ;//Текущие значения контроллеров
                 ;unsigned char ucFX1_sw = 0;
                 ;unsigned char ucFX2_sw = 0;
                 ;unsigned char ucFX3_sw = 0;
                 ;unsigned char ucFX4_sw = 0;
                 ;unsigned char ucFX5_sw = 0;
                 ;unsigned char ucFX6_sw = 0;
                 ;unsigned char ucFX7_sw = 0;
                 ;unsigned char ucFX8_sw = 0;
                 ;unsigned int ADC_voltage = 0;
                 ;unsigned int ADC_voltage_old = 0;
                 ;//первый активный по умолчанию
                 ;int CurPreset = 1;
                 
                 	.DSEG
                 ;
                 ;//первый банк грузится при включении
                 ;unsigned char nBnkNum = 1;
                 ;
                 ;void MIDI_CC_send(char cCtrlNum, char cVal)
                 ; 0000 0070 {
                 
                 	.CSEG
                 _MIDI_CC_send:
                 ; .FSTART _MIDI_CC_send
                 ; 0000 0071               putchar(0xB0);  //отправляем Control Change сообощение  (пока жестко в первый канал)
00009a 93aa      	ST   -Y,R26
                 ;	cCtrlNum -> Y+1
                 ;	cVal -> Y+0
00009b eba0      	LDI  R26,LOW(176)
00009c 940e 05de 	CALL _putchar
                 ; 0000 0072               putchar(cCtrlNum);  // с нужным номером миди контроллера
00009e 81a9      	LDD  R26,Y+1
00009f 940e 05de 	CALL _putchar
                 ; 0000 0073               putchar(cVal);  // и нужным значением
0000a1 81a8      	LD   R26,Y
0000a2 940e 05de 	CALL _putchar
                 ; 0000 0074 }
0000a4 940c 0509 	JMP  _0x20C0004
                 ; .FEND
                 ;
                 ;void MIDI_PC_send(char cPrgNum)
                 ; 0000 0077 {
                 _MIDI_PC_send:
                 ; .FSTART _MIDI_PC_send
                 ; 0000 0078               putchar(0xC0);  //отправляем Program Change сообощение  (пока жестко в первый канал)
0000a6 93aa      	ST   -Y,R26
                 ;	cPrgNum -> Y+0
0000a7 eca0      	LDI  R26,LOW(192)
0000a8 940e 05de 	CALL _putchar
                 ; 0000 0079               putchar(cPrgNum);  // с нужным номером пресета
0000aa 81a8      	LD   R26,Y
0000ab 940e 05de 	CALL _putchar
                 ; 0000 007A }
0000ad 940c 05e3 	JMP  _0x20C0001
                 ; .FEND
                 ;
                 ;void redraw_main_window(void)// перерисовка рабочего окна для дисплея 16х2
                 ; 0000 007D {
                 _redraw_main_window:
                 ; .FSTART _redraw_main_window
                 ; 0000 007E 
                 ; 0000 007F        char cPreset_1[4];
                 ; 0000 0080        char cPreset_2[4];
                 ; 0000 0081        char cPreset_3[4];
                 ; 0000 0082        char cPreset_4[4];
                 ; 0000 0083        char cPreset_5[4];
                 ; 0000 0084        char cPreset_6[4];
                 ; 0000 0085        char cPreset_7[4];
                 ; 0000 0086        char cPreset_8[4];
                 ; 0000 0087 
                 ; 0000 0088        lcd_clear();
0000af 97a0      	SBIW R28,32
                 ;	cPreset_1 -> Y+28
                 ;	cPreset_2 -> Y+24
                 ;	cPreset_3 -> Y+20
                 ;	cPreset_4 -> Y+16
                 ;	cPreset_5 -> Y+12
                 ;	cPreset_6 -> Y+8
                 ;	cPreset_7 -> Y+4
                 ;	cPreset_8 -> Y+0
0000b0 940e 050b 	CALL _lcd_clear
                 ; 0000 0089        itoa((nPreset_1 + 1), cPreset_1);
0000b2 2de5      	MOV  R30,R5
0000b3 940e 05e5 	CALL SUBOPT_0x0
0000b5 01de      	MOVW R26,R28
0000b6 965e      	ADIW R26,30
0000b7 940e 05b0 	CALL _itoa
                 ; 0000 008A        lcd_puts(cPreset_1);
0000b9 01de      	MOVW R26,R28
0000ba 965c      	ADIW R26,28
0000bb 940e 0547 	CALL _lcd_puts
                 ; 0000 008B 
                 ; 0000 008C        lcd_gotoxy(4, 0);
0000bd e0e4      	LDI  R30,LOW(4)
0000be 940e 05ea 	CALL SUBOPT_0x1
                 ; 0000 008D        itoa((nPreset_2 + 1), cPreset_2);
0000c0 2de4      	MOV  R30,R4
0000c1 940e 05e5 	CALL SUBOPT_0x0
0000c3 01de      	MOVW R26,R28
0000c4 965a      	ADIW R26,26
0000c5 940e 05b0 	CALL _itoa
                 ; 0000 008E        lcd_puts(cPreset_2);
0000c7 01de      	MOVW R26,R28
0000c8 9658      	ADIW R26,24
0000c9 940e 0547 	CALL _lcd_puts
                 ; 0000 008F 
                 ; 0000 0090        lcd_gotoxy(7, 0);
0000cb e0e7      	LDI  R30,LOW(7)
0000cc 940e 05ea 	CALL SUBOPT_0x1
                 ; 0000 0091        if (ucPC_sw == 0) lcd_putsf("PC");
0000ce 20dd      	TST  R13
0000cf f421      	BRNE _0x5
                +
0000d0 e7a4     +LDI R26 , LOW ( 2 * _0x0 + ( 0 ) )
0000d1 e0b0     +LDI R27 , HIGH ( 2 * _0x0 + ( 0 ) )
                 	__POINTW2FN _0x0,0
0000d2 940e 0556 	CALL _lcd_putsf
                 ; 0000 0092        if (ucPC_sw == 1) lcd_putsf("CC");
                 _0x5:
0000d4 e0e1      	LDI  R30,LOW(1)
0000d5 15ed      	CP   R30,R13
0000d6 f421      	BRNE _0x6
                +
0000d7 e7a7     +LDI R26 , LOW ( 2 * _0x0 + ( 3 ) )
0000d8 e0b0     +LDI R27 , HIGH ( 2 * _0x0 + ( 3 ) )
                 	__POINTW2FN _0x0,3
0000d9 940e 0556 	CALL _lcd_putsf
                 ; 0000 0093 
                 ; 0000 0094        lcd_gotoxy(9, 0);
                 _0x6:
0000db e0e9      	LDI  R30,LOW(9)
0000dc 940e 05ea 	CALL SUBOPT_0x1
                 ; 0000 0095        itoa((nPreset_3 + 1), cPreset_3);
0000de 2de7      	MOV  R30,R7
0000df 940e 05e5 	CALL SUBOPT_0x0
0000e1 01de      	MOVW R26,R28
0000e2 9656      	ADIW R26,22
0000e3 940e 05b0 	CALL _itoa
                 ; 0000 0096        lcd_puts(cPreset_3);
0000e5 01de      	MOVW R26,R28
0000e6 9654      	ADIW R26,20
0000e7 940e 0547 	CALL _lcd_puts
                 ; 0000 0097 
                 ; 0000 0098        lcd_gotoxy(13, 0);
0000e9 e0ed      	LDI  R30,LOW(13)
0000ea 940e 05ea 	CALL SUBOPT_0x1
                 ; 0000 0099        itoa((nPreset_4+ 1), cPreset_4);
0000ec 2de6      	MOV  R30,R6
0000ed 940e 05e5 	CALL SUBOPT_0x0
0000ef 01de      	MOVW R26,R28
0000f0 9652      	ADIW R26,18
0000f1 940e 05b0 	CALL _itoa
                 ; 0000 009A        lcd_puts(cPreset_4);
0000f3 01de      	MOVW R26,R28
0000f4 9650      	ADIW R26,16
0000f5 940e 0547 	CALL _lcd_puts
                 ; 0000 009B 
                 ; 0000 009C        lcd_gotoxy(0, 1);
0000f7 e0e0      	LDI  R30,LOW(0)
0000f8 940e 05ee 	CALL SUBOPT_0x2
                 ; 0000 009D        itoa((nPreset_5 + 1), cPreset_5);
0000fa 2de9      	MOV  R30,R9
0000fb 940e 05e5 	CALL SUBOPT_0x0
0000fd 01de      	MOVW R26,R28
0000fe 961e      	ADIW R26,14
0000ff 940e 05b0 	CALL _itoa
                 ; 0000 009E        lcd_puts(cPreset_5);
000101 01de      	MOVW R26,R28
000102 961c      	ADIW R26,12
000103 940e 0547 	CALL _lcd_puts
                 ; 0000 009F 
                 ; 0000 00A0        lcd_gotoxy(4, 1);
000105 e0e4      	LDI  R30,LOW(4)
000106 940e 05ee 	CALL SUBOPT_0x2
                 ; 0000 00A1        itoa((nPreset_6 + 1), cPreset_6);
000108 2de8      	MOV  R30,R8
000109 940e 05e5 	CALL SUBOPT_0x0
00010b 01de      	MOVW R26,R28
00010c 961a      	ADIW R26,10
00010d 940e 05b0 	CALL _itoa
                 ; 0000 00A2        lcd_puts(cPreset_6);
00010f 01de      	MOVW R26,R28
000110 9618      	ADIW R26,8
000111 940e 0547 	CALL _lcd_puts
                 ; 0000 00A3 
                 ; 0000 00A4        lcd_gotoxy(7, 1);
000113 e0e7      	LDI  R30,LOW(7)
000114 940e 05ee 	CALL SUBOPT_0x2
                 ; 0000 00A5        lcd_putsf("  ");
                +
000116 e7aa     +LDI R26 , LOW ( 2 * _0x0 + ( 6 ) )
000117 e0b0     +LDI R27 , HIGH ( 2 * _0x0 + ( 6 ) )
                 	__POINTW2FN _0x0,6
000118 940e 0556 	CALL _lcd_putsf
                 ; 0000 00A6        itoa((nPreset_7 + 1), cPreset_7);
00011a 2deb      	MOV  R30,R11
00011b 940e 05e5 	CALL SUBOPT_0x0
00011d 01de      	MOVW R26,R28
00011e 9616      	ADIW R26,6
00011f 940e 05b0 	CALL _itoa
                 ; 0000 00A7        lcd_puts(cPreset_7);
000121 01de      	MOVW R26,R28
000122 9614      	ADIW R26,4
000123 940e 0547 	CALL _lcd_puts
                 ; 0000 00A8 
                 ; 0000 00A9        lcd_gotoxy(13, 1);
000125 e0ed      	LDI  R30,LOW(13)
000126 940e 05ee 	CALL SUBOPT_0x2
                 ; 0000 00AA        itoa((nPreset_8+ 1), cPreset_8);
000128 2dea      	MOV  R30,R10
000129 940e 05e5 	CALL SUBOPT_0x0
00012b 940e 05f2 	CALL SUBOPT_0x3
                 ; 0000 00AB        lcd_puts(cPreset_8);
                 ; 0000 00AC 
                 ; 0000 00AD         //убиваем старый курсор
                 ; 0000 00AE          lcd_gotoxy(3, 0);
00012d e0e3      	LDI  R30,LOW(3)
00012e 940e 05ea 	CALL SUBOPT_0x1
                 ; 0000 00AF          lcd_putsf(" ");
000130 940e 05f9 	CALL SUBOPT_0x4
                 ; 0000 00B0          lcd_gotoxy(12, 0);
000132 e0ec      	LDI  R30,LOW(12)
000133 940e 05ea 	CALL SUBOPT_0x1
                 ; 0000 00B1          lcd_putsf(" ");
000135 940e 05f9 	CALL SUBOPT_0x4
                 ; 0000 00B2          lcd_gotoxy(3, 1);
000137 e0e3      	LDI  R30,LOW(3)
000138 940e 05ee 	CALL SUBOPT_0x2
                 ; 0000 00B3          lcd_putsf(" ");
00013a 940e 05f9 	CALL SUBOPT_0x4
                 ; 0000 00B4          lcd_gotoxy(12, 1);
00013c e0ec      	LDI  R30,LOW(12)
00013d 940e 05ee 	CALL SUBOPT_0x2
                 ; 0000 00B5          lcd_putsf(" ");
00013f 940e 05f9 	CALL SUBOPT_0x4
                 ; 0000 00B6 
                 ; 0000 00B7         //рисуем новый
                 ; 0000 00B8       switch (CurPreset)
000141 940e 05fd 	CALL SUBOPT_0x5
                 ; 0000 00B9        {
                 ; 0000 00BA        		case 1:
000143 f431      	BRNE _0xA
                 ; 0000 00BB                 lcd_gotoxy(3, 0);
000144 e0e3      	LDI  R30,LOW(3)
000145 940e 05ea 	CALL SUBOPT_0x1
                 ; 0000 00BC                 lcd_putsf("<");
                +
000147 e7ad     +LDI R26 , LOW ( 2 * _0x0 + ( 9 ) )
000148 e0b0     +LDI R27 , HIGH ( 2 * _0x0 + ( 9 ) )
                 	__POINTW2FN _0x0,9
000149 c03f      	RJMP _0xBF
                 ; 0000 00BD                 break;
                 ; 0000 00BE             case 2:
                 _0xA:
00014a 30e2      	CPI  R30,LOW(0x2)
00014b e0a0      	LDI  R26,HIGH(0x2)
00014c 07fa      	CPC  R31,R26
00014d f421      	BRNE _0xB
                 ; 0000 00BF                 lcd_gotoxy(3, 0);
00014e e0e3      	LDI  R30,LOW(3)
00014f 93ea      	ST   -Y,R30
000150 e0a0      	LDI  R26,LOW(0)
000151 c033      	RJMP _0xC0
                 ; 0000 00C0                 lcd_putsf(">");
                 ; 0000 00C1     		    break;
                 ; 0000 00C2             case 3:
                 _0xB:
000152 30e3      	CPI  R30,LOW(0x3)
000153 e0a0      	LDI  R26,HIGH(0x3)
000154 07fa      	CPC  R31,R26
000155 f431      	BRNE _0xC
                 ; 0000 00C3                 lcd_gotoxy(12, 0);
000156 e0ec      	LDI  R30,LOW(12)
000157 940e 05ea 	CALL SUBOPT_0x1
                 ; 0000 00C4                 lcd_putsf("<");
                +
000159 e7ad     +LDI R26 , LOW ( 2 * _0x0 + ( 9 ) )
00015a e0b0     +LDI R27 , HIGH ( 2 * _0x0 + ( 9 ) )
                 	__POINTW2FN _0x0,9
00015b c02d      	RJMP _0xBF
                 ; 0000 00C5                 break;
                 ; 0000 00C6             case 4:
                 _0xC:
00015c 30e4      	CPI  R30,LOW(0x4)
00015d e0a0      	LDI  R26,HIGH(0x4)
00015e 07fa      	CPC  R31,R26
00015f f421      	BRNE _0xD
                 ; 0000 00C7                 lcd_gotoxy(12, 0);
000160 e0ec      	LDI  R30,LOW(12)
000161 93ea      	ST   -Y,R30
000162 e0a0      	LDI  R26,LOW(0)
000163 c021      	RJMP _0xC0
                 ; 0000 00C8                 lcd_putsf(">");
                 ; 0000 00C9     		    break;
                 ; 0000 00CA             case 5:
                 _0xD:
000164 30e5      	CPI  R30,LOW(0x5)
000165 e0a0      	LDI  R26,HIGH(0x5)
000166 07fa      	CPC  R31,R26
000167 f431      	BRNE _0xE
                 ; 0000 00CB                 lcd_gotoxy(3, 1);
000168 e0e3      	LDI  R30,LOW(3)
000169 940e 05ee 	CALL SUBOPT_0x2
                 ; 0000 00CC                 lcd_putsf("<");
                +
00016b e7ad     +LDI R26 , LOW ( 2 * _0x0 + ( 9 ) )
00016c e0b0     +LDI R27 , HIGH ( 2 * _0x0 + ( 9 ) )
                 	__POINTW2FN _0x0,9
00016d c01b      	RJMP _0xBF
                 ; 0000 00CD                 break;
                 ; 0000 00CE             case 6:
                 _0xE:
00016e 30e6      	CPI  R30,LOW(0x6)
00016f e0a0      	LDI  R26,HIGH(0x6)
000170 07fa      	CPC  R31,R26
000171 f411      	BRNE _0xF
                 ; 0000 00CF                 lcd_gotoxy(3, 1);
000172 e0e3      	LDI  R30,LOW(3)
000173 c00f      	RJMP _0xC1
                 ; 0000 00D0                 lcd_putsf(">");
                 ; 0000 00D1     		    break;
                 ; 0000 00D2             case 7:
                 _0xF:
000174 30e7      	CPI  R30,LOW(0x7)
000175 e0a0      	LDI  R26,HIGH(0x7)
000176 07fa      	CPC  R31,R26
000177 f431      	BRNE _0x10
                 ; 0000 00D3                 lcd_gotoxy(12, 1);
000178 e0ec      	LDI  R30,LOW(12)
000179 940e 05ee 	CALL SUBOPT_0x2
                 ; 0000 00D4                 lcd_putsf("<");
                +
00017b e7ad     +LDI R26 , LOW ( 2 * _0x0 + ( 9 ) )
00017c e0b0     +LDI R27 , HIGH ( 2 * _0x0 + ( 9 ) )
                 	__POINTW2FN _0x0,9
00017d c00b      	RJMP _0xBF
                 ; 0000 00D5                 break;
                 ; 0000 00D6             case 8:
                 _0x10:
00017e 30e8      	CPI  R30,LOW(0x8)
00017f e0a0      	LDI  R26,HIGH(0x8)
000180 07fa      	CPC  R31,R26
000181 f449      	BRNE _0x9
                 ; 0000 00D7                 lcd_gotoxy(12, 1);
000182 e0ec      	LDI  R30,LOW(12)
                 _0xC1:
000183 93ea      	ST   -Y,R30
000184 e0a1      	LDI  R26,LOW(1)
                 _0xC0:
000185 940e 04f7 	CALL _lcd_gotoxy
                 ; 0000 00D8                 lcd_putsf(">");
                +
000187 e7af     +LDI R26 , LOW ( 2 * _0x0 + ( 11 ) )
000188 e0b0     +LDI R27 , HIGH ( 2 * _0x0 + ( 11 ) )
                 	__POINTW2FN _0x0,11
                 _0xBF:
000189 940e 0556 	CALL _lcd_putsf
                 ; 0000 00D9     		    break;
                 ; 0000 00DA        }
                 _0x9:
                 ; 0000 00DB }
00018b 96a0      	ADIW R28,32
00018c 9508      	RET
                 ; .FEND
                 ;
                 ;void redraw_save_window(void)// перерисовка конфигурационного окна для дисплея 16х2
                 ; 0000 00DE {
                 _redraw_save_window:
                 ; .FSTART _redraw_save_window
                 ; 0000 00DF        char cBnkNum[4];
                 ; 0000 00E0 
                 ; 0000 00E1        lcd_clear();
00018d 9724      	SBIW R28,4
                 ;	cBnkNum -> Y+0
00018e 940e 050b 	CALL _lcd_clear
                 ; 0000 00E2        lcd_putsf("Save to bank# ");
                +
000190 e8a1     +LDI R26 , LOW ( 2 * _0x0 + ( 13 ) )
000191 e0b0     +LDI R27 , HIGH ( 2 * _0x0 + ( 13 ) )
                 	__POINTW2FN _0x0,13
000192 c005      	RJMP _0x20C0005
                 ; 0000 00E3        itoa(nBnkNum, cBnkNum);
                 ; 0000 00E4        lcd_puts(cBnkNum);
                 ; 0000 00E5 
                 ; 0000 00E6 }
                 ; .FEND
                 ;
                 ;
                 ;void redraw_load_window(void)// перерисовка конфигурационного окна для дисплея 16х2
                 ; 0000 00EA {
                 _redraw_load_window:
                 ; .FSTART _redraw_load_window
                 ; 0000 00EB        char cBnkNum[4];
                 ; 0000 00EC 
                 ; 0000 00ED        lcd_clear();
000193 9724      	SBIW R28,4
                 ;	cBnkNum -> Y+0
000194 940e 050b 	CALL _lcd_clear
                 ; 0000 00EE        lcd_putsf("Load bank# ");
                +
000196 e9a0     +LDI R26 , LOW ( 2 * _0x0 + ( 28 ) )
000197 e0b0     +LDI R27 , HIGH ( 2 * _0x0 + ( 28 ) )
                 	__POINTW2FN _0x0,28
                 _0x20C0005:
000198 940e 0556 	CALL _lcd_putsf
                 ; 0000 00EF        itoa(nBnkNum, cBnkNum);
00019a 91e0 016d 	LDS  R30,_nBnkNum
00019c e0f0      	LDI  R31,0
00019d 93fa      	ST   -Y,R31
00019e 93ea      	ST   -Y,R30
00019f 940e 05f2 	CALL SUBOPT_0x3
                 ; 0000 00F0        lcd_puts(cBnkNum);
                 ; 0000 00F1 }
0001a1 9624      	ADIW R28,4
0001a2 9508      	RET
                 ; .FEND
                 ;
                 ;
                 ;
                 ;// Declare your global variables here
                 ;
                 ;void main(void)
                 ; 0000 00F8 {
                 _main:
                 ; .FSTART _main
                 ; 0000 00F9 // Declare your local variables here
                 ; 0000 00FA 
                 ; 0000 00FB // Input/Output Ports initialization
                 ; 0000 00FC // Port A initialization
                 ; 0000 00FD // Func7=In Func6=In Func5=In Func4=In Func3=In Func2=In Func1=In Func0=In
                 ; 0000 00FE // State7=P State6=P State5=P State4=P State3=P State2=P State1=P State0=P
                 ; 0000 00FF PORTA=0xFF;
0001a3 efef      	LDI  R30,LOW(255)
0001a4 bbeb      	OUT  0x1B,R30
                 ; 0000 0100 DDRA=0x00;
0001a5 e0e0      	LDI  R30,LOW(0)
0001a6 bbea      	OUT  0x1A,R30
                 ; 0000 0101 
                 ; 0000 0102 // Port B initialization
                 ; 0000 0103 // Func7=In Func6=In Func5=In Func4=In Func3=In Func2=In Func1=In Func0=In
                 ; 0000 0104 // State7=T State6=T State5=T State4=T State3=P State2=P State1=P State0=P
                 ; 0000 0105 PORTB=0x0F;
0001a7 e0ef      	LDI  R30,LOW(15)
0001a8 bbe8      	OUT  0x18,R30
                 ; 0000 0106 DDRB=0x00;
0001a9 e0e0      	LDI  R30,LOW(0)
0001aa bbe7      	OUT  0x17,R30
                 ; 0000 0107 
                 ; 0000 0108 // Port C initialization
                 ; 0000 0109 // Func7=In Func6=In Func5=In Func4=In Func3=In Func2=In Func1=In Func0=In
                 ; 0000 010A // State7=T State6=T State5=T State4=T State3=T State2=T State1=T State0=T
                 ; 0000 010B PORTC=0x00;
0001ab bbe5      	OUT  0x15,R30
                 ; 0000 010C DDRC=0x00;
0001ac bbe4      	OUT  0x14,R30
                 ; 0000 010D 
                 ; 0000 010E // Port D initialization
                 ; 0000 010F // Func7=In Func6=In Func5=In Func4=In Func3=In Func2=In Func1=In Func0=In
                 ; 0000 0110 // State7=T State6=T State5=T State4=T State3=P State2=P State1=T State0=T
                 ; 0000 0111 PORTD=0x1A;
0001ad e1ea      	LDI  R30,LOW(26)
0001ae bbe2      	OUT  0x12,R30
                 ; 0000 0112 DDRD=0x00;
0001af e0e0      	LDI  R30,LOW(0)
0001b0 bbe1      	OUT  0x11,R30
                 ; 0000 0113 
                 ; 0000 0114 // Timer/Counter 0 initialization
                 ; 0000 0115 // Clock source: System Clock
                 ; 0000 0116 // Clock value: Timer 0 Stopped
                 ; 0000 0117 // Mode: Normal top=FFh
                 ; 0000 0118 // OC0 output: Disconnected
                 ; 0000 0119 TCCR0=0x00;
0001b1 bfe3      	OUT  0x33,R30
                 ; 0000 011A TCNT0=0x00;
0001b2 bfe2      	OUT  0x32,R30
                 ; 0000 011B OCR0=0x00;
0001b3 bfec      	OUT  0x3C,R30
                 ; 0000 011C 
                 ; 0000 011D // Timer/Counter 1 initialization
                 ; 0000 011E // Clock source: System Clock
                 ; 0000 011F // Clock value: Timer 1 Stopped
                 ; 0000 0120 // Mode: Normal top=FFFFh
                 ; 0000 0121 // OC1A output: Discon.
                 ; 0000 0122 // OC1B output: Discon.
                 ; 0000 0123 // Noise Canceler: Off
                 ; 0000 0124 // Input Capture on Falling Edge
                 ; 0000 0125 // Timer 1 Overflow Interrupt: Off
                 ; 0000 0126 // Input Capture Interrupt: Off
                 ; 0000 0127 // Compare A Match Interrupt: Off
                 ; 0000 0128 // Compare B Match Interrupt: Off
                 ; 0000 0129 TCCR1A=0x00;
0001b4 bdef      	OUT  0x2F,R30
                 ; 0000 012A TCCR1B=0x00;
0001b5 bdee      	OUT  0x2E,R30
                 ; 0000 012B TCNT1H=0x00;
0001b6 bded      	OUT  0x2D,R30
                 ; 0000 012C TCNT1L=0x00;
0001b7 bdec      	OUT  0x2C,R30
                 ; 0000 012D ICR1H=0x00;
0001b8 bde7      	OUT  0x27,R30
                 ; 0000 012E ICR1L=0x00;
0001b9 bde6      	OUT  0x26,R30
                 ; 0000 012F OCR1AH=0x00;
0001ba bdeb      	OUT  0x2B,R30
                 ; 0000 0130 OCR1AL=0x00;
0001bb bdea      	OUT  0x2A,R30
                 ; 0000 0131 OCR1BH=0x00;
0001bc bde9      	OUT  0x29,R30
                 ; 0000 0132 OCR1BL=0x00;
0001bd bde8      	OUT  0x28,R30
                 ; 0000 0133 
                 ; 0000 0134 // Timer/Counter 2 initialization
                 ; 0000 0135 // Clock source: System Clock
                 ; 0000 0136 // Clock value: Timer 2 Stopped
                 ; 0000 0137 // Mode: Normal top=FFh
                 ; 0000 0138 // OC2 output: Disconnected
                 ; 0000 0139 ASSR=0x00;
0001be bde2      	OUT  0x22,R30
                 ; 0000 013A TCCR2=0x00;
0001bf bde5      	OUT  0x25,R30
                 ; 0000 013B TCNT2=0x00;
0001c0 bde4      	OUT  0x24,R30
                 ; 0000 013C OCR2=0x00;
0001c1 bde3      	OUT  0x23,R30
                 ; 0000 013D 
                 ; 0000 013E // External Interrupt(s) initialization
                 ; 0000 013F // INT0: On
                 ; 0000 0140 // INT0 Mode: Falling Edge
                 ; 0000 0141 // INT1: Off
                 ; 0000 0142 // INT2: Off
                 ; 0000 0143 /*GICR|=0x40;
                 ; 0000 0144 MCUCR=0x00;
                 ; 0000 0145 MCUCSR=0x00;
                 ; 0000 0146 GIFR=0x40;*/
                 ; 0000 0147 
                 ; 0000 0148 MCUCR=0x00;
0001c2 bfe5      	OUT  0x35,R30
                 ; 0000 0149 MCUCSR=0x00;
0001c3 bfe4      	OUT  0x34,R30
                 ; 0000 014A 
                 ; 0000 014B // Timer(s)/Counter(s) Interrupt(s) initialization
                 ; 0000 014C TIMSK=0x00;
0001c4 bfe9      	OUT  0x39,R30
                 ; 0000 014D 
                 ; 0000 014E // USART initialization
                 ; 0000 014F // Communication Parameters: 8 Data, 1 Stop, No Parity
                 ; 0000 0150 // USART Receiver: Off
                 ; 0000 0151 // USART Transmitter: On
                 ; 0000 0152 // USART Mode: Asynchronous
                 ; 0000 0153 // USART Baud Rate: 31250
                 ; 0000 0154 UCSRA=0x00;
0001c5 b9eb      	OUT  0xB,R30
                 ; 0000 0155 UCSRB=0x08;
0001c6 e0e8      	LDI  R30,LOW(8)
0001c7 b9ea      	OUT  0xA,R30
                 ; 0000 0156 UCSRC=0x86;
0001c8 e8e6      	LDI  R30,LOW(134)
0001c9 bde0      	OUT  0x20,R30
                 ; 0000 0157 UBRRH=0x00;
0001ca e0e0      	LDI  R30,LOW(0)
0001cb bde0      	OUT  0x20,R30
                 ; 0000 0158 UBRRL=0x07;
0001cc e0e7      	LDI  R30,LOW(7)
0001cd b9e9      	OUT  0x9,R30
                 ; 0000 0159 
                 ; 0000 015A 
                 ; 0000 015B // Analog Comparator initialization
                 ; 0000 015C // Analog Comparator: Off
                 ; 0000 015D // Analog Comparator Input Capture by Timer/Counter 1: Off
                 ; 0000 015E ACSR=0x80;
0001ce e8e0      	LDI  R30,LOW(128)
0001cf b9e8      	OUT  0x8,R30
                 ; 0000 015F SFIOR=0x00;
0001d0 e0e0      	LDI  R30,LOW(0)
0001d1 bfe0      	OUT  0x30,R30
                 ; 0000 0160 ADMUX=7;
0001d2 e0e7      	LDI  R30,LOW(7)
0001d3 b9e7      	OUT  0x7,R30
                 ; 0000 0161 ADCSR=0x85;
0001d4 e8e5      	LDI  R30,LOW(133)
0001d5 b9e6      	OUT  0x6,R30
                 ; 0000 0162 
                 ; 0000 0163 
                 ; 0000 0164 
                 ; 0000 0165 // LCD module initialization
                 ; 0000 0166 lcd_init(16);
0001d6 e1a0      	LDI  R26,LOW(16)
0001d7 940e 057b 	CALL _lcd_init
                 ; 0000 0167 
                 ; 0000 0168       lcd_putsf("XanLab FS v2.0"); //Превед
                +
0001d9 e9ac     +LDI R26 , LOW ( 2 * _0x0 + ( 40 ) )
0001da e0b0     +LDI R27 , HIGH ( 2 * _0x0 + ( 40 ) )
                 	__POINTW2FN _0x0,40
0001db 940e 0556 	CALL _lcd_putsf
                 ; 0000 0169       delay_ms(1000);
0001dd eea8      	LDI  R26,LOW(1000)
0001de e0b3      	LDI  R27,HIGH(1000)
0001df 940e 0688 	CALL _delay_ms
                 ; 0000 016A 
                 ; 0000 016B       nPreset_1 = ucP1[nBnkNum - 1];
0001e1 940e 0605 	CALL SUBOPT_0x6
0001e3 940e 060a 	CALL SUBOPT_0x7
                 ; 0000 016C             if(nPreset_1 > 127) nPreset_1 = 0; //Если в памяти было что то больше чем 127,
0001e5 f408      	BRSH _0x12
0001e6 2455      	CLR  R5
                 ; 0000 016D             //предпологаем, что была память непроинициализированна, устанавливаем значения в 0
                 ; 0000 016E       nPreset_2 = ucP2[nBnkNum - 1];
                 _0x12:
0001e7 940e 0605 	CALL SUBOPT_0x6
0001e9 940e 0613 	CALL SUBOPT_0x8
                 ; 0000 016F             if(nPreset_2 > 127) nPreset_2 = 0;
0001eb f408      	BRSH _0x13
0001ec 2444      	CLR  R4
                 ; 0000 0170       nPreset_3 = ucP3[nBnkNum - 1];
                 _0x13:
0001ed 940e 0605 	CALL SUBOPT_0x6
0001ef 940e 061c 	CALL SUBOPT_0x9
                 ; 0000 0171             if(nPreset_3 > 127) nPreset_3 = 0;
0001f1 f408      	BRSH _0x14
0001f2 2477      	CLR  R7
                 ; 0000 0172       nPreset_4 = ucP4[nBnkNum - 1];
                 _0x14:
0001f3 940e 0605 	CALL SUBOPT_0x6
0001f5 940e 0625 	CALL SUBOPT_0xA
                 ; 0000 0173             if(nPreset_4 > 127) nPreset_4 = 0;
0001f7 f408      	BRSH _0x15
0001f8 2466      	CLR  R6
                 ; 0000 0174       nPreset_5 = ucP5[nBnkNum - 1];
                 _0x15:
0001f9 940e 0605 	CALL SUBOPT_0x6
0001fb 940e 062e 	CALL SUBOPT_0xB
                 ; 0000 0175             if(nPreset_5 > 127) nPreset_5 = 0;
0001fd f408      	BRSH _0x16
0001fe 2499      	CLR  R9
                 ; 0000 0176       nPreset_6 = ucP6[nBnkNum - 1];
                 _0x16:
0001ff 940e 0605 	CALL SUBOPT_0x6
000201 940e 0637 	CALL SUBOPT_0xC
                 ; 0000 0177             if(nPreset_6 > 127) nPreset_6 = 0;
000203 f408      	BRSH _0x17
000204 2488      	CLR  R8
                 ; 0000 0178       nPreset_7 = ucP7[nBnkNum - 1];
                 _0x17:
000205 940e 0605 	CALL SUBOPT_0x6
000207 940e 0640 	CALL SUBOPT_0xD
                 ; 0000 0179             if(nPreset_7 > 127) nPreset_7 = 0;
000209 f408      	BRSH _0x18
00020a 24bb      	CLR  R11
                 ; 0000 017A       nPreset_8 = ucP8[nBnkNum - 1];
                 _0x18:
00020b 940e 0605 	CALL SUBOPT_0x6
00020d 940e 0649 	CALL SUBOPT_0xE
                 ; 0000 017B             if(nPreset_8 > 127) nPreset_8 = 0;
00020f f408      	BRSH _0x19
000210 24aa      	CLR  R10
                 ; 0000 017C 
                 ; 0000 017D       redraw_main_window();
                 _0x19:
000211 de9d      	RCALL _redraw_main_window
                 ; 0000 017E 
                 ; 0000 017F       // Global enable interrupts
                 ; 0000 0180 //#asm("sei")
                 ; 0000 0181 
                 ; 0000 0182 
                 ; 0000 0183 while (1)
                 _0x1A:
                 ; 0000 0184       {
                 ; 0000 0185         ADCSR |= 0x40;
000212 9a36      	SBI  0x6,6
                 ; 0000 0186         ADC_voltage = ADCW/8;
000213 b1e4      	IN   R30,0x4
000214 b1f5      	IN   R31,0x4+1
000215 940e 0692 	CALL __LSRW3
000217 93e0 0167 	STS  _ADC_voltage,R30
000219 93f0 0168 	STS  _ADC_voltage+1,R31
                 ; 0000 0187         if ( ADC_voltage != ADC_voltage_old)
00021b 91e0 0169 	LDS  R30,_ADC_voltage_old
00021d 91f0 016a 	LDS  R31,_ADC_voltage_old+1
00021f 91a0 0167 	LDS  R26,_ADC_voltage
000221 91b0 0168 	LDS  R27,_ADC_voltage+1
000223 17ea      	CP   R30,R26
000224 07fb      	CPC  R31,R27
000225 f069      	BREQ _0x1D
                 ; 0000 0188           { MIDI_CC_send(EXP, ADC_voltage);
000226 e0eb      	LDI  R30,LOW(11)
000227 93ea      	ST   -Y,R30
000228 91a0 0167 	LDS  R26,_ADC_voltage
00022a de6f      	RCALL _MIDI_CC_send
                 ; 0000 0189             ADC_voltage_old = ADC_voltage;
00022b 91e0 0167 	LDS  R30,_ADC_voltage
00022d 91f0 0168 	LDS  R31,_ADC_voltage+1
00022f 93e0 0169 	STS  _ADC_voltage_old,R30
000231 93f0 016a 	STS  _ADC_voltage_old+1,R31
                 ; 0000 018A           }
                 ; 0000 018B         if (s_inc_sw == 0) //инкремент значения
                 _0x1D:
000233 99b0      	SBIC 0x16,0
000234 c04a      	RJMP _0x1E
                 ; 0000 018C          {
                 ; 0000 018D            #asm("cli")
000235 94f8      	cli
                 ; 0000 018E           switch (CurPreset)
000236 940e 05fd 	CALL SUBOPT_0x5
                 ; 0000 018F            {
                 ; 0000 0190                 case 1:
000238 f429      	BRNE _0x22
                 ; 0000 0191                     if(nPreset_1 < 127)
000239 e7ef      	LDI  R30,LOW(127)
00023a 165e      	CP   R5,R30
00023b f408      	BRSH _0x23
                 ; 0000 0192                         nPreset_1++;
00023c 9453      	INC  R5
                 ; 0000 0193                     break;
                 _0x23:
00023d c03e      	RJMP _0x21
                 ; 0000 0194                 case 2:
                 _0x22:
00023e 30e2      	CPI  R30,LOW(0x2)
00023f e0a0      	LDI  R26,HIGH(0x2)
000240 07fa      	CPC  R31,R26
000241 f429      	BRNE _0x24
                 ; 0000 0195                     if(nPreset_2 < 127)
000242 e7ef      	LDI  R30,LOW(127)
000243 164e      	CP   R4,R30
000244 f408      	BRSH _0x25
                 ; 0000 0196                         nPreset_2++;
000245 9443      	INC  R4
                 ; 0000 0197                     break;
                 _0x25:
000246 c035      	RJMP _0x21
                 ; 0000 0198                 case 3:
                 _0x24:
000247 30e3      	CPI  R30,LOW(0x3)
000248 e0a0      	LDI  R26,HIGH(0x3)
000249 07fa      	CPC  R31,R26
00024a f429      	BRNE _0x26
                 ; 0000 0199                     if(nPreset_3 < 127)
00024b e7ef      	LDI  R30,LOW(127)
00024c 167e      	CP   R7,R30
00024d f408      	BRSH _0x27
                 ; 0000 019A                         nPreset_3++;
00024e 9473      	INC  R7
                 ; 0000 019B                     break;
                 _0x27:
00024f c02c      	RJMP _0x21
                 ; 0000 019C                 case 4:
                 _0x26:
000250 30e4      	CPI  R30,LOW(0x4)
000251 e0a0      	LDI  R26,HIGH(0x4)
000252 07fa      	CPC  R31,R26
000253 f429      	BRNE _0x28
                 ; 0000 019D                     if(nPreset_4 < 127)
000254 e7ef      	LDI  R30,LOW(127)
000255 166e      	CP   R6,R30
000256 f408      	BRSH _0x29
                 ; 0000 019E                         nPreset_4++;
000257 9463      	INC  R6
                 ; 0000 019F                     break;
                 _0x29:
000258 c023      	RJMP _0x21
                 ; 0000 01A0                 case 5:
                 _0x28:
000259 30e5      	CPI  R30,LOW(0x5)
00025a e0a0      	LDI  R26,HIGH(0x5)
00025b 07fa      	CPC  R31,R26
00025c f429      	BRNE _0x2A
                 ; 0000 01A1                     if(nPreset_5 < 127)
00025d e7ef      	LDI  R30,LOW(127)
00025e 169e      	CP   R9,R30
00025f f408      	BRSH _0x2B
                 ; 0000 01A2                         nPreset_5++;
000260 9493      	INC  R9
                 ; 0000 01A3                     break;
                 _0x2B:
000261 c01a      	RJMP _0x21
                 ; 0000 01A4                 case 6:
                 _0x2A:
000262 30e6      	CPI  R30,LOW(0x6)
000263 e0a0      	LDI  R26,HIGH(0x6)
000264 07fa      	CPC  R31,R26
000265 f429      	BRNE _0x2C
                 ; 0000 01A5                     if(nPreset_6 < 127)
000266 e7ef      	LDI  R30,LOW(127)
000267 168e      	CP   R8,R30
000268 f408      	BRSH _0x2D
                 ; 0000 01A6                         nPreset_6++;
000269 9483      	INC  R8
                 ; 0000 01A7                     break;
                 _0x2D:
00026a c011      	RJMP _0x21
                 ; 0000 01A8                 case 7:
                 _0x2C:
00026b 30e7      	CPI  R30,LOW(0x7)
00026c e0a0      	LDI  R26,HIGH(0x7)
00026d 07fa      	CPC  R31,R26
00026e f429      	BRNE _0x2E
                 ; 0000 01A9                     if(nPreset_7 < 127)
00026f e7ef      	LDI  R30,LOW(127)
000270 16be      	CP   R11,R30
000271 f408      	BRSH _0x2F
                 ; 0000 01AA                         nPreset_7++;
000272 94b3      	INC  R11
                 ; 0000 01AB                     break;
                 _0x2F:
000273 c008      	RJMP _0x21
                 ; 0000 01AC                 case 8:
                 _0x2E:
000274 30e8      	CPI  R30,LOW(0x8)
000275 e0a0      	LDI  R26,HIGH(0x8)
000276 07fa      	CPC  R31,R26
000277 f421      	BRNE _0x32
                 ; 0000 01AD                     if(nPreset_8 < 127)
000278 e7ef      	LDI  R30,LOW(127)
000279 16ae      	CP   R10,R30
00027a f408      	BRSH _0x31
                 ; 0000 01AE                         nPreset_8++;
00027b 94a3      	INC  R10
                 ; 0000 01AF                     break;
                 _0x31:
                 ; 0000 01B0                 default: break;
                 _0x32:
                 ; 0000 01B1            }
                 _0x21:
                 ; 0000 01B2                redraw_main_window();
00027c 940e 0652 	CALL SUBOPT_0xF
                 ; 0000 01B3                delay_ms(BUTTON_DELAY);
                 ; 0000 01B4            #asm("sei")
00027e 9478      	sei
                 ; 0000 01B5         };
                 _0x1E:
                 ; 0000 01B6 
                 ; 0000 01B7         if (s_dec_sw == 0) // декремент значения
00027f 99b1      	SBIC 0x16,1
000280 c04a      	RJMP _0x33
                 ; 0000 01B8          {
                 ; 0000 01B9            #asm("cli")
000281 94f8      	cli
                 ; 0000 01BA           switch (CurPreset)
000282 940e 05fd 	CALL SUBOPT_0x5
                 ; 0000 01BB            {
                 ; 0000 01BC                 case 1:
000284 f429      	BRNE _0x37
                 ; 0000 01BD                     if(nPreset_1 > 0)
000285 e0e0      	LDI  R30,LOW(0)
000286 15e5      	CP   R30,R5
000287 f408      	BRSH _0x38
                 ; 0000 01BE                         nPreset_1--;
000288 945a      	DEC  R5
                 ; 0000 01BF                     break;
                 _0x38:
000289 c03e      	RJMP _0x36
                 ; 0000 01C0                 case 2:
                 _0x37:
00028a 30e2      	CPI  R30,LOW(0x2)
00028b e0a0      	LDI  R26,HIGH(0x2)
00028c 07fa      	CPC  R31,R26
00028d f429      	BRNE _0x39
                 ; 0000 01C1                     if(nPreset_2 > 0)
00028e e0e0      	LDI  R30,LOW(0)
00028f 15e4      	CP   R30,R4
000290 f408      	BRSH _0x3A
                 ; 0000 01C2                         nPreset_2--;
000291 944a      	DEC  R4
                 ; 0000 01C3                     break;
                 _0x3A:
000292 c035      	RJMP _0x36
                 ; 0000 01C4                 case 3:
                 _0x39:
000293 30e3      	CPI  R30,LOW(0x3)
000294 e0a0      	LDI  R26,HIGH(0x3)
000295 07fa      	CPC  R31,R26
000296 f429      	BRNE _0x3B
                 ; 0000 01C5                     if(nPreset_3 > 0)
000297 e0e0      	LDI  R30,LOW(0)
000298 15e7      	CP   R30,R7
000299 f408      	BRSH _0x3C
                 ; 0000 01C6                         nPreset_3--;
00029a 947a      	DEC  R7
                 ; 0000 01C7                     break;
                 _0x3C:
00029b c02c      	RJMP _0x36
                 ; 0000 01C8                 case 4:
                 _0x3B:
00029c 30e4      	CPI  R30,LOW(0x4)
00029d e0a0      	LDI  R26,HIGH(0x4)
00029e 07fa      	CPC  R31,R26
00029f f429      	BRNE _0x3D
                 ; 0000 01C9                     if(nPreset_4 > 0)
0002a0 e0e0      	LDI  R30,LOW(0)
0002a1 15e6      	CP   R30,R6
0002a2 f408      	BRSH _0x3E
                 ; 0000 01CA                         nPreset_4--;
0002a3 946a      	DEC  R6
                 ; 0000 01CB                     break;
                 _0x3E:
0002a4 c023      	RJMP _0x36
                 ; 0000 01CC                 case 5:
                 _0x3D:
0002a5 30e5      	CPI  R30,LOW(0x5)
0002a6 e0a0      	LDI  R26,HIGH(0x5)
0002a7 07fa      	CPC  R31,R26
0002a8 f429      	BRNE _0x3F
                 ; 0000 01CD                     if(nPreset_5 > 0)
0002a9 e0e0      	LDI  R30,LOW(0)
0002aa 15e9      	CP   R30,R9
0002ab f408      	BRSH _0x40
                 ; 0000 01CE                         nPreset_5--;
0002ac 949a      	DEC  R9
                 ; 0000 01CF                     break;
                 _0x40:
0002ad c01a      	RJMP _0x36
                 ; 0000 01D0                 case 6:
                 _0x3F:
0002ae 30e6      	CPI  R30,LOW(0x6)
0002af e0a0      	LDI  R26,HIGH(0x6)
0002b0 07fa      	CPC  R31,R26
0002b1 f429      	BRNE _0x41
                 ; 0000 01D1                     if(nPreset_6 > 0)
0002b2 e0e0      	LDI  R30,LOW(0)
0002b3 15e8      	CP   R30,R8
0002b4 f408      	BRSH _0x42
                 ; 0000 01D2                         nPreset_6--;
0002b5 948a      	DEC  R8
                 ; 0000 01D3                     break;
                 _0x42:
0002b6 c011      	RJMP _0x36
                 ; 0000 01D4                 case 7:
                 _0x41:
0002b7 30e7      	CPI  R30,LOW(0x7)
0002b8 e0a0      	LDI  R26,HIGH(0x7)
0002b9 07fa      	CPC  R31,R26
0002ba f429      	BRNE _0x43
                 ; 0000 01D5                     if(nPreset_7 > 0)
0002bb e0e0      	LDI  R30,LOW(0)
0002bc 15eb      	CP   R30,R11
0002bd f408      	BRSH _0x44
                 ; 0000 01D6                         nPreset_7--;
0002be 94ba      	DEC  R11
                 ; 0000 01D7                     break;
                 _0x44:
0002bf c008      	RJMP _0x36
                 ; 0000 01D8                 case 8:
                 _0x43:
0002c0 30e8      	CPI  R30,LOW(0x8)
0002c1 e0a0      	LDI  R26,HIGH(0x8)
0002c2 07fa      	CPC  R31,R26
0002c3 f421      	BRNE _0x47
                 ; 0000 01D9                     if(nPreset_8 > 0)
0002c4 e0e0      	LDI  R30,LOW(0)
0002c5 15ea      	CP   R30,R10
0002c6 f408      	BRSH _0x46
                 ; 0000 01DA                         nPreset_8--;
0002c7 94aa      	DEC  R10
                 ; 0000 01DB                     break;
                 _0x46:
                 ; 0000 01DC                 default: break;
                 _0x47:
                 ; 0000 01DD            }
                 _0x36:
                 ; 0000 01DE                redraw_main_window();
0002c8 940e 0652 	CALL SUBOPT_0xF
                 ; 0000 01DF                delay_ms(BUTTON_DELAY);
                 ; 0000 01E0            #asm("sei")
0002ca 9478      	sei
                 ; 0000 01E1         };
                 _0x33:
                 ; 0000 01E2 
                 ; 0000 01E3         if (s_save_sw == 0) // сохранение в банк
0002cb 99b2      	SBIC 0x16,2
0002cc c060      	RJMP _0x48
                 ; 0000 01E4          {
                 ; 0000 01E5           redraw_save_window();
0002cd 940e 0658 	CALL SUBOPT_0x10
                 ; 0000 01E6            delay_ms(BUTTON_DELAY);
                 ; 0000 01E7            while(s_save_sw == 0){};
                 _0x49:
0002cf 9bb2      	SBIS 0x16,2
0002d0 cffe      	RJMP _0x49
                 ; 0000 01E8                  while(1)
                 _0x4C:
                 ; 0000 01E9                  {
                 ; 0000 01EA                   if ((s_inc_sw == 0) && (nBnkNum < 10)) //инкремент банка
0002d1 99b0      	SBIC 0x16,0
0002d2 c004      	RJMP _0x50
0002d3 91a0 016d 	LDS  R26,_nBnkNum
0002d5 30aa      	CPI  R26,LOW(0xA)
0002d6 f008      	BRLO _0x51
                 _0x50:
0002d7 c009      	RJMP _0x4F
                 _0x51:
                 ; 0000 01EB                     {
                 ; 0000 01EC                     #asm("cli")
0002d8 94f8      	cli
                 ; 0000 01ED                      nBnkNum++;
0002d9 91e0 016d 	LDS  R30,_nBnkNum
0002db 5fef      	SUBI R30,-LOW(1)
0002dc 93e0 016d 	STS  _nBnkNum,R30
                 ; 0000 01EE                      redraw_save_window();
0002de 940e 0658 	CALL SUBOPT_0x10
                 ; 0000 01EF                      delay_ms(BUTTON_DELAY);
                 ; 0000 01F0                      #asm("sei")
0002e0 9478      	sei
                 ; 0000 01F1                     }
                 ; 0000 01F2                   if ((s_dec_sw == 0) && (nBnkNum > 1)) //декремент банка
                 _0x4F:
0002e1 99b1      	SBIC 0x16,1
0002e2 c004      	RJMP _0x53
0002e3 91a0 016d 	LDS  R26,_nBnkNum
0002e5 30a2      	CPI  R26,LOW(0x2)
0002e6 f408      	BRSH _0x54
                 _0x53:
0002e7 c009      	RJMP _0x52
                 _0x54:
                 ; 0000 01F3                     {
                 ; 0000 01F4                     #asm("cli")
0002e8 94f8      	cli
                 ; 0000 01F5                      nBnkNum--;
0002e9 91e0 016d 	LDS  R30,_nBnkNum
0002eb 50e1      	SUBI R30,LOW(1)
0002ec 93e0 016d 	STS  _nBnkNum,R30
                 ; 0000 01F6                      redraw_save_window();
0002ee 940e 0658 	CALL SUBOPT_0x10
                 ; 0000 01F7                      delay_ms(BUTTON_DELAY);
                 ; 0000 01F8                      #asm("sei")
0002f0 9478      	sei
                 ; 0000 01F9                     }
                 ; 0000 01FA                   if (s_save_sw == 0) //сохранить банк
                 _0x52:
0002f1 99b2      	SBIC 0x16,2
0002f2 c039      	RJMP _0x55
                 ; 0000 01FB                     {
                 ; 0000 01FC                     #asm("cli")
0002f3 94f8      	cli
                 ; 0000 01FD                      ucP1[nBnkNum-1] = nPreset_1;
0002f4 940e 0605 	CALL SUBOPT_0x6
0002f6 50e0      	SUBI R30,LOW(-_ucP1)
0002f7 40f0      	SBCI R31,HIGH(-_ucP1)
0002f8 01df      	MOVW R26,R30
0002f9 2de5      	MOV  R30,R5
0002fa 940e 065e 	CALL SUBOPT_0x11
                 ; 0000 01FE                      ucP2[nBnkNum-1] = nPreset_2;
0002fc 5fe6      	SUBI R30,LOW(-_ucP2)
0002fd 4fff      	SBCI R31,HIGH(-_ucP2)
0002fe 01df      	MOVW R26,R30
0002ff 2de4      	MOV  R30,R4
000300 940e 065e 	CALL SUBOPT_0x11
                 ; 0000 01FF                      ucP3[nBnkNum-1] = nPreset_3;
000302 5eec      	SUBI R30,LOW(-_ucP3)
000303 4fff      	SBCI R31,HIGH(-_ucP3)
000304 01df      	MOVW R26,R30
000305 2de7      	MOV  R30,R7
000306 940e 065e 	CALL SUBOPT_0x11
                 ; 0000 0200                      ucP4[nBnkNum-1] = nPreset_4;
000308 5ee2      	SUBI R30,LOW(-_ucP4)
000309 4fff      	SBCI R31,HIGH(-_ucP4)
00030a 01df      	MOVW R26,R30
00030b 2de6      	MOV  R30,R6
00030c 940e 065e 	CALL SUBOPT_0x11
                 ; 0000 0201                      ucP5[nBnkNum-1] = nPreset_5;
00030e 5de8      	SUBI R30,LOW(-_ucP5)
00030f 4fff      	SBCI R31,HIGH(-_ucP5)
000310 01df      	MOVW R26,R30
000311 2de9      	MOV  R30,R9
000312 940e 065e 	CALL SUBOPT_0x11
                 ; 0000 0202                      ucP6[nBnkNum-1] = nPreset_6;
000314 5cee      	SUBI R30,LOW(-_ucP6)
000315 4fff      	SBCI R31,HIGH(-_ucP6)
000316 01df      	MOVW R26,R30
000317 2de8      	MOV  R30,R8
000318 940e 065e 	CALL SUBOPT_0x11
                 ; 0000 0203                      ucP7[nBnkNum-1] = nPreset_7;
00031a 5ce4      	SUBI R30,LOW(-_ucP7)
00031b 4fff      	SBCI R31,HIGH(-_ucP7)
00031c 01df      	MOVW R26,R30
00031d 2deb      	MOV  R30,R11
00031e 940e 065e 	CALL SUBOPT_0x11
                 ; 0000 0204                      ucP8[nBnkNum-1] = nPreset_8;
000320 5bea      	SUBI R30,LOW(-_ucP8)
000321 4fff      	SBCI R31,HIGH(-_ucP8)
000322 01df      	MOVW R26,R30
000323 2dea      	MOV  R30,R10
000324 940e 06a5 	CALL __EEPROMWRB
                 ; 0000 0205                      redraw_main_window();
000326 940e 0652 	CALL SUBOPT_0xF
                 ; 0000 0206                      delay_ms(BUTTON_DELAY);
                 ; 0000 0207                      while(s_save_sw == 0){};
                 _0x56:
000328 9bb2      	SBIS 0x16,2
000329 cffe      	RJMP _0x56
                 ; 0000 0208                      #asm("sei")
00032a 9478      	sei
                 ; 0000 0209                      break;
00032b c001      	RJMP _0x4E
                 ; 0000 020A                     }
                 ; 0000 020B                   }
                 _0x55:
00032c cfa4      	RJMP _0x4C
                 _0x4E:
                 ; 0000 020C 
                 ; 0000 020D          };
                 _0x48:
                 ; 0000 020E 
                 ; 0000 020F         if (s_load_sw == 0) // загрузка из банка
00032d 99b3      	SBIC 0x16,3
00032e c063      	RJMP _0x59
                 ; 0000 0210          {
                 ; 0000 0211            redraw_load_window();
00032f 940e 0661 	CALL SUBOPT_0x12
                 ; 0000 0212            delay_ms(BUTTON_DELAY);
                 ; 0000 0213            while(s_load_sw == 0){};
                 _0x5A:
000331 9bb3      	SBIS 0x16,3
000332 cffe      	RJMP _0x5A
                 ; 0000 0214                  while(1)
                 _0x5D:
                 ; 0000 0215                  {
                 ; 0000 0216                   if ((s_inc_sw == 0) && (nBnkNum < 10)) //инкремент банка
000333 99b0      	SBIC 0x16,0
000334 c004      	RJMP _0x61
000335 91a0 016d 	LDS  R26,_nBnkNum
000337 30aa      	CPI  R26,LOW(0xA)
000338 f008      	BRLO _0x62
                 _0x61:
000339 c009      	RJMP _0x60
                 _0x62:
                 ; 0000 0217                     {
                 ; 0000 0218                     #asm("cli")
00033a 94f8      	cli
                 ; 0000 0219                      nBnkNum++;
00033b 91e0 016d 	LDS  R30,_nBnkNum
00033d 5fef      	SUBI R30,-LOW(1)
00033e 93e0 016d 	STS  _nBnkNum,R30
                 ; 0000 021A                      redraw_load_window();
000340 940e 0661 	CALL SUBOPT_0x12
                 ; 0000 021B                      delay_ms(BUTTON_DELAY);
                 ; 0000 021C                      #asm("sei")
000342 9478      	sei
                 ; 0000 021D                     }
                 ; 0000 021E                   if ((s_dec_sw == 0) && (nBnkNum > 1)) //декремент банка
                 _0x60:
000343 99b1      	SBIC 0x16,1
000344 c004      	RJMP _0x64
000345 91a0 016d 	LDS  R26,_nBnkNum
000347 30a2      	CPI  R26,LOW(0x2)
000348 f408      	BRSH _0x65
                 _0x64:
000349 c009      	RJMP _0x63
                 _0x65:
                 ; 0000 021F                     {
                 ; 0000 0220                     #asm("cli")
00034a 94f8      	cli
                 ; 0000 0221                      nBnkNum--;
00034b 91e0 016d 	LDS  R30,_nBnkNum
00034d 50e1      	SUBI R30,LOW(1)
00034e 93e0 016d 	STS  _nBnkNum,R30
                 ; 0000 0222                      redraw_load_window();
000350 940e 0661 	CALL SUBOPT_0x12
                 ; 0000 0223                      delay_ms(BUTTON_DELAY);
                 ; 0000 0224                      #asm("sei")
000352 9478      	sei
                 ; 0000 0225                     }
                 ; 0000 0226                   if (s_load_sw == 0) //загрузить банк
                 _0x63:
000353 99b3      	SBIC 0x16,3
000354 c03c      	RJMP _0x66
                 ; 0000 0227                     {
                 ; 0000 0228                     #asm("cli")
000355 94f8      	cli
                 ; 0000 0229                      nPreset_1 = ucP1[nBnkNum-1];
000356 940e 0605 	CALL SUBOPT_0x6
000358 940e 060a 	CALL SUBOPT_0x7
                 ; 0000 022A                         if(nPreset_1 > 127) nPreset_1 = 0;
00035a f408      	BRSH _0x67
00035b 2455      	CLR  R5
                 ; 0000 022B                      nPreset_2 = ucP2[nBnkNum-1];
                 _0x67:
00035c 940e 0605 	CALL SUBOPT_0x6
00035e 940e 0613 	CALL SUBOPT_0x8
                 ; 0000 022C                         if(nPreset_2 > 127) nPreset_2 = 0;
000360 f408      	BRSH _0x68
000361 2444      	CLR  R4
                 ; 0000 022D                      nPreset_3 = ucP3[nBnkNum-1];
                 _0x68:
000362 940e 0605 	CALL SUBOPT_0x6
000364 940e 061c 	CALL SUBOPT_0x9
                 ; 0000 022E                         if(nPreset_3 > 127) nPreset_3 = 0;
000366 f408      	BRSH _0x69
000367 2477      	CLR  R7
                 ; 0000 022F                      nPreset_4 = ucP4[nBnkNum-1];
                 _0x69:
000368 940e 0605 	CALL SUBOPT_0x6
00036a 940e 0625 	CALL SUBOPT_0xA
                 ; 0000 0230                         if(nPreset_4 > 127) nPreset_4 = 0;
00036c f408      	BRSH _0x6A
00036d 2466      	CLR  R6
                 ; 0000 0231                      nPreset_5 = ucP5[nBnkNum-1];
                 _0x6A:
00036e 940e 0605 	CALL SUBOPT_0x6
000370 940e 062e 	CALL SUBOPT_0xB
                 ; 0000 0232                         if(nPreset_5 > 127) nPreset_5 = 0;
000372 f408      	BRSH _0x6B
000373 2499      	CLR  R9
                 ; 0000 0233                      nPreset_6 = ucP6[nBnkNum-1];
                 _0x6B:
000374 940e 0605 	CALL SUBOPT_0x6
000376 940e 0637 	CALL SUBOPT_0xC
                 ; 0000 0234                         if(nPreset_6 > 127) nPreset_6 = 0;
000378 f408      	BRSH _0x6C
000379 2488      	CLR  R8
                 ; 0000 0235                      nPreset_7 = ucP7[nBnkNum-1];
                 _0x6C:
00037a 940e 0605 	CALL SUBOPT_0x6
00037c 940e 0640 	CALL SUBOPT_0xD
                 ; 0000 0236                         if(nPreset_7 > 127) nPreset_7 = 0;
00037e f408      	BRSH _0x6D
00037f 24bb      	CLR  R11
                 ; 0000 0237                      nPreset_8 = ucP8[nBnkNum-1];
                 _0x6D:
000380 940e 0605 	CALL SUBOPT_0x6
000382 940e 0649 	CALL SUBOPT_0xE
                 ; 0000 0238                         if(nPreset_8 > 127) nPreset_8 = 0;
000384 f408      	BRSH _0x6E
000385 24aa      	CLR  R10
                 ; 0000 0239                      CurPreset = 1;
                 _0x6E:
000386 940e 0667 	CALL SUBOPT_0x13
                 ; 0000 023A                      MIDI_PC_send(nPreset_1);  // Включаем первый пресет
000388 2da5      	MOV  R26,R5
000389 940e 00a6 	CALL _MIDI_PC_send
                 ; 0000 023B                      redraw_main_window();
00038b 940e 0652 	CALL SUBOPT_0xF
                 ; 0000 023C                      delay_ms(BUTTON_DELAY);
                 ; 0000 023D                      while(s_load_sw == 0){};
                 _0x6F:
00038d 9bb3      	SBIS 0x16,3
00038e cffe      	RJMP _0x6F
                 ; 0000 023E                      #asm("sei")
00038f 9478      	sei
                 ; 0000 023F                      break;
000390 c001      	RJMP _0x5F
                 ; 0000 0240                     }
                 ; 0000 0241                   }
                 _0x66:
000391 cfa1      	RJMP _0x5D
                 _0x5F:
                 ; 0000 0242           }
                 ; 0000 0243 
                 ; 0000 0244         if (P1_sw == 0) // смена программы(пресета)
                 _0x59:
000392 99c8      	SBIC 0x19,0
000393 c01d      	RJMP _0x72
                 ; 0000 0245         { #asm("cli")
000394 94f8      	cli
                 ; 0000 0246          if (ucPC_sw == 0)
000395 20dd      	TST  R13
000396 f441      	BRNE _0x73
                 ; 0000 0247            {
                 ; 0000 0248             MIDI_PC_send(nPreset_1);  // Включаем пресет
000397 2da5      	MOV  R26,R5
000398 940e 00a6 	CALL _MIDI_PC_send
                 ; 0000 0249             CurPreset = 1;// изменяем номер активного пресета
00039a 940e 0667 	CALL SUBOPT_0x13
                 ; 0000 024A             redraw_main_window();
00039c 940e 00af 	CALL _redraw_main_window
                 ; 0000 024B             delay_ms(BUTTON_DELAY);
00039e c00b      	RJMP _0xC2
                 ; 0000 024C              }
                 ; 0000 024D          else
                 _0x73:
                 ; 0000 024E          {
                 ; 0000 024F             if(ucFX1_sw == 0)// Если был выключен - включить и наоборот
00039f 20cc      	TST  R12
0003a0 f419      	BRNE _0x75
                 ; 0000 0250                 ucFX1_sw = 127;
0003a1 e7ef      	LDI  R30,LOW(127)
0003a2 2ece      	MOV  R12,R30
                 ; 0000 0251             else
0003a3 c001      	RJMP _0x76
                 _0x75:
                 ; 0000 0252                 ucFX1_sw = 0;
0003a4 24cc      	CLR  R12
                 ; 0000 0253             MIDI_CC_send(FX1, ucFX1_sw);   //отправить комманду
                 _0x76:
0003a5 e4e0      	LDI  R30,LOW(64)
0003a6 93ea      	ST   -Y,R30
0003a7 2dac      	MOV  R26,R12
0003a8 940e 009a 	CALL _MIDI_CC_send
                 ; 0000 0254             delay_ms(BUTTON_DELAY);
                 _0xC2:
0003aa e2ac      	LDI  R26,LOW(300)
0003ab e0b1      	LDI  R27,HIGH(300)
0003ac 940e 0688 	CALL _delay_ms
                 ; 0000 0255             }
                 ; 0000 0256           while(P1_sw == 0){};
                 _0x77:
0003ae 9bc8      	SBIS 0x19,0
0003af cffe      	RJMP _0x77
                 ; 0000 0257             #asm("sei")
0003b0 9478      	sei
                 ; 0000 0258         }
                 ; 0000 0259 
                 ; 0000 025A         if (P2_sw == 0) // смена программы(пресета)
                 _0x72:
0003b1 99c9      	SBIC 0x19,1
0003b2 c021      	RJMP _0x7A
                 ; 0000 025B         { #asm("cli")
0003b3 94f8      	cli
                 ; 0000 025C          if (ucPC_sw == 0)
0003b4 20dd      	TST  R13
0003b5 f441      	BRNE _0x7B
                 ; 0000 025D            {
                 ; 0000 025E             MIDI_PC_send(nPreset_2);  // Включаем пресет
0003b6 2da4      	MOV  R26,R4
0003b7 940e 00a6 	CALL _MIDI_PC_send
                 ; 0000 025F             CurPreset = 2;// изменяем номер активного пресета
0003b9 e0e2      	LDI  R30,LOW(2)
0003ba e0f0      	LDI  R31,HIGH(2)
0003bb 940e 066e 	CALL SUBOPT_0x14
                 ; 0000 0260             redraw_main_window();
                 ; 0000 0261             delay_ms(BUTTON_DELAY);
0003bd c00f      	RJMP _0xC3
                 ; 0000 0262              }
                 ; 0000 0263          else
                 _0x7B:
                 ; 0000 0264          {
                 ; 0000 0265             if(ucFX2_sw == 0)// Если был выключен - включить и наоборот
0003be 91e0 0160 	LDS  R30,_ucFX2_sw
0003c0 30e0      	CPI  R30,0
0003c1 f411      	BRNE _0x7D
                 ; 0000 0266                 ucFX2_sw = 127;
0003c2 e7ef      	LDI  R30,LOW(127)
0003c3 c001      	RJMP _0xC4
                 ; 0000 0267             else
                 _0x7D:
                 ; 0000 0268                 ucFX2_sw = 0;
0003c4 e0e0      	LDI  R30,LOW(0)
                 _0xC4:
0003c5 93e0 0160 	STS  _ucFX2_sw,R30
                 ; 0000 0269             MIDI_CC_send(FX2, ucFX2_sw);   //отправить комманду
0003c7 e4e1      	LDI  R30,LOW(65)
0003c8 93ea      	ST   -Y,R30
0003c9 91a0 0160 	LDS  R26,_ucFX2_sw
0003cb 940e 009a 	CALL _MIDI_CC_send
                 ; 0000 026A             delay_ms(BUTTON_DELAY);
                 _0xC3:
0003cd e2ac      	LDI  R26,LOW(300)
0003ce e0b1      	LDI  R27,HIGH(300)
0003cf 940e 0688 	CALL _delay_ms
                 ; 0000 026B             }
                 ; 0000 026C             while(P2_sw == 0){};
                 _0x7F:
0003d1 9bc9      	SBIS 0x19,1
0003d2 cffe      	RJMP _0x7F
                 ; 0000 026D             #asm("sei")
0003d3 9478      	sei
                 ; 0000 026E         }
                 ; 0000 026F 
                 ; 0000 0270         if (P3_sw == 0) // смена программы(пресета)
                 _0x7A:
0003d4 99ca      	SBIC 0x19,2
0003d5 c021      	RJMP _0x82
                 ; 0000 0271         { #asm("cli")
0003d6 94f8      	cli
                 ; 0000 0272          if (ucPC_sw == 0)
0003d7 20dd      	TST  R13
0003d8 f441      	BRNE _0x83
                 ; 0000 0273            {
                 ; 0000 0274             MIDI_PC_send(nPreset_3);  // Включаем пресет
0003d9 2da7      	MOV  R26,R7
0003da 940e 00a6 	CALL _MIDI_PC_send
                 ; 0000 0275             CurPreset = 3;// изменяем номер активного пресета
0003dc e0e3      	LDI  R30,LOW(3)
0003dd e0f0      	LDI  R31,HIGH(3)
0003de 940e 066e 	CALL SUBOPT_0x14
                 ; 0000 0276             redraw_main_window();
                 ; 0000 0277             delay_ms(BUTTON_DELAY);
0003e0 c00f      	RJMP _0xC5
                 ; 0000 0278             }
                 ; 0000 0279          else
                 _0x83:
                 ; 0000 027A          {
                 ; 0000 027B             if(ucFX3_sw == 0)// Если был выключен - включить и наоборот
0003e1 91e0 0161 	LDS  R30,_ucFX3_sw
0003e3 30e0      	CPI  R30,0
0003e4 f411      	BRNE _0x85
                 ; 0000 027C                 ucFX3_sw = 127;
0003e5 e7ef      	LDI  R30,LOW(127)
0003e6 c001      	RJMP _0xC6
                 ; 0000 027D             else
                 _0x85:
                 ; 0000 027E                 ucFX3_sw = 0;
0003e7 e0e0      	LDI  R30,LOW(0)
                 _0xC6:
0003e8 93e0 0161 	STS  _ucFX3_sw,R30
                 ; 0000 027F             MIDI_CC_send(FX3, ucFX3_sw);   //отправить комманду
0003ea e4e2      	LDI  R30,LOW(66)
0003eb 93ea      	ST   -Y,R30
0003ec 91a0 0161 	LDS  R26,_ucFX3_sw
0003ee 940e 009a 	CALL _MIDI_CC_send
                 ; 0000 0280             delay_ms(BUTTON_DELAY);
                 _0xC5:
0003f0 e2ac      	LDI  R26,LOW(300)
0003f1 e0b1      	LDI  R27,HIGH(300)
0003f2 940e 0688 	CALL _delay_ms
                 ; 0000 0281             }
                 ; 0000 0282             while(P3_sw == 0){};
                 _0x87:
0003f4 9bca      	SBIS 0x19,2
0003f5 cffe      	RJMP _0x87
                 ; 0000 0283             #asm("sei")
0003f6 9478      	sei
                 ; 0000 0284         }
                 ; 0000 0285 
                 ; 0000 0286         if (P4_sw == 0) // смена программы(пресета)
                 _0x82:
0003f7 99cb      	SBIC 0x19,3
0003f8 c01f      	RJMP _0x8A
                 ; 0000 0287         { #asm("cli")
0003f9 94f8      	cli
                 ; 0000 0288           if (ucPC_sw == 0)
0003fa 20dd      	TST  R13
0003fb f451      	BRNE _0x8B
                 ; 0000 0289            {
                 ; 0000 028A             MIDI_PC_send(nPreset_4);  // Включаем пресет
0003fc 2da6      	MOV  R26,R6
0003fd 940e 00a6 	CALL _MIDI_PC_send
                 ; 0000 028B             CurPreset = 4;// изменяем номер активного пресета
0003ff e0e4      	LDI  R30,LOW(4)
000400 e0f0      	LDI  R31,HIGH(4)
000401 940e 0674 	CALL SUBOPT_0x15
                 ; 0000 028C             redraw_main_window();
                 ; 0000 028D             delay_ms(BUTTON_DELAY);
                 ; 0000 028E             while(P4_sw == 0){}; }
                 _0x8C:
000403 9bcb      	SBIS 0x19,3
000404 cffe      	RJMP _0x8C
                 ; 0000 028F          else
000405 c00f      	RJMP _0x8F
                 _0x8B:
                 ; 0000 0290          {
                 ; 0000 0291             if(ucFX4_sw == 0)// Если был выключен - включить и наоборот
000406 91e0 0162 	LDS  R30,_ucFX4_sw
000408 30e0      	CPI  R30,0
000409 f411      	BRNE _0x90
                 ; 0000 0292                 ucFX4_sw = 127;
00040a e7ef      	LDI  R30,LOW(127)
00040b c001      	RJMP _0xC7
                 ; 0000 0293             else
                 _0x90:
                 ; 0000 0294                 ucFX4_sw = 0;
00040c e0e0      	LDI  R30,LOW(0)
                 _0xC7:
00040d 93e0 0162 	STS  _ucFX4_sw,R30
                 ; 0000 0295             MIDI_CC_send(FX4, ucFX4_sw);   //отправить комманду
00040f e4e3      	LDI  R30,LOW(67)
000410 93ea      	ST   -Y,R30
000411 91a0 0162 	LDS  R26,_ucFX4_sw
000413 940e 0679 	CALL SUBOPT_0x16
                 ; 0000 0296             delay_ms(BUTTON_DELAY);
                 ; 0000 0297              }
                 _0x8F:
                 ; 0000 0298              while(P4_sw == 0){};
                 _0x92:
000415 9bcb      	SBIS 0x19,3
000416 cffe      	RJMP _0x92
                 ; 0000 0299             #asm("sei")
000417 9478      	sei
                 ; 0000 029A         }
                 ; 0000 029B 
                 ; 0000 029C         if (P5_sw == 0) // смена значения контроллера(вкл\выкл эффект)
                 _0x8A:
000418 99cc      	SBIC 0x19,4
000419 c01f      	RJMP _0x95
                 ; 0000 029D         { #asm("cli")
00041a 94f8      	cli
                 ; 0000 029E         if (ucPC_sw == 0)
00041b 20dd      	TST  R13
00041c f451      	BRNE _0x96
                 ; 0000 029F            {
                 ; 0000 02A0             MIDI_PC_send(nPreset_5);  // Включаем пресет
00041d 2da9      	MOV  R26,R9
00041e 940e 00a6 	CALL _MIDI_PC_send
                 ; 0000 02A1             CurPreset = 5;// изменяем номер активного пресета
000420 e0e5      	LDI  R30,LOW(5)
000421 e0f0      	LDI  R31,HIGH(5)
000422 940e 0674 	CALL SUBOPT_0x15
                 ; 0000 02A2             redraw_main_window();
                 ; 0000 02A3             delay_ms(BUTTON_DELAY);
                 ; 0000 02A4             while(P5_sw == 0){};
                 _0x97:
000424 9bcc      	SBIS 0x19,4
000425 cffe      	RJMP _0x97
                 ; 0000 02A5            }
                 ; 0000 02A6          else
000426 c00f      	RJMP _0x9A
                 _0x96:
                 ; 0000 02A7          {
                 ; 0000 02A8             if(ucFX5_sw == 0)// Если был выключен - включить и наоборот
000427 91e0 0163 	LDS  R30,_ucFX5_sw
000429 30e0      	CPI  R30,0
00042a f411      	BRNE _0x9B
                 ; 0000 02A9                 ucFX5_sw = 127;
00042b e7ef      	LDI  R30,LOW(127)
00042c c001      	RJMP _0xC8
                 ; 0000 02AA             else
                 _0x9B:
                 ; 0000 02AB                 ucFX5_sw = 0;
00042d e0e0      	LDI  R30,LOW(0)
                 _0xC8:
00042e 93e0 0163 	STS  _ucFX5_sw,R30
                 ; 0000 02AC             MIDI_CC_send(FX5, ucFX5_sw);   //отправить комманду
000430 e4e4      	LDI  R30,LOW(68)
000431 93ea      	ST   -Y,R30
000432 91a0 0163 	LDS  R26,_ucFX5_sw
000434 940e 0679 	CALL SUBOPT_0x16
                 ; 0000 02AD             delay_ms(BUTTON_DELAY);
                 ; 0000 02AE             }
                 _0x9A:
                 ; 0000 02AF             while(P5_sw == 0){};
                 _0x9D:
000436 9bcc      	SBIS 0x19,4
000437 cffe      	RJMP _0x9D
                 ; 0000 02B0             #asm("sei")
000438 9478      	sei
                 ; 0000 02B1         }
                 ; 0000 02B2 
                 ; 0000 02B3         if (P6_sw == 0) // смена значения контроллера(вкл\выкл эффект)
                 _0x95:
000439 99cd      	SBIC 0x19,5
00043a c021      	RJMP _0xA0
                 ; 0000 02B4         { #asm("cli")
00043b 94f8      	cli
                 ; 0000 02B5          if (ucPC_sw == 0)
00043c 20dd      	TST  R13
00043d f441      	BRNE _0xA1
                 ; 0000 02B6            {
                 ; 0000 02B7             MIDI_PC_send(nPreset_6);  // Включаем пресет
00043e 2da8      	MOV  R26,R8
00043f 940e 00a6 	CALL _MIDI_PC_send
                 ; 0000 02B8             CurPreset = 6;// изменяем номер активного пресета
000441 e0e6      	LDI  R30,LOW(6)
000442 e0f0      	LDI  R31,HIGH(6)
000443 940e 066e 	CALL SUBOPT_0x14
                 ; 0000 02B9             redraw_main_window();
                 ; 0000 02BA             delay_ms(BUTTON_DELAY);
000445 c00f      	RJMP _0xC9
                 ; 0000 02BB             }
                 ; 0000 02BC          else
                 _0xA1:
                 ; 0000 02BD          { if(ucFX6_sw == 0)// Если был выключен - включить и наоборот
000446 91e0 0164 	LDS  R30,_ucFX6_sw
000448 30e0      	CPI  R30,0
000449 f411      	BRNE _0xA3
                 ; 0000 02BE                 ucFX6_sw = 127;
00044a e7ef      	LDI  R30,LOW(127)
00044b c001      	RJMP _0xCA
                 ; 0000 02BF             else
                 _0xA3:
                 ; 0000 02C0                 ucFX6_sw = 0;
00044c e0e0      	LDI  R30,LOW(0)
                 _0xCA:
00044d 93e0 0164 	STS  _ucFX6_sw,R30
                 ; 0000 02C1             MIDI_CC_send(FX6, ucFX6_sw);   //отправить комманду
00044f e4e5      	LDI  R30,LOW(69)
000450 93ea      	ST   -Y,R30
000451 91a0 0164 	LDS  R26,_ucFX6_sw
000453 940e 009a 	CALL _MIDI_CC_send
                 ; 0000 02C2             delay_ms(BUTTON_DELAY);
                 _0xC9:
000455 e2ac      	LDI  R26,LOW(300)
000456 e0b1      	LDI  R27,HIGH(300)
000457 940e 0688 	CALL _delay_ms
                 ; 0000 02C3             }
                 ; 0000 02C4             while(P6_sw == 0){};
                 _0xA5:
000459 9bcd      	SBIS 0x19,5
00045a cffe      	RJMP _0xA5
                 ; 0000 02C5             #asm("sei")
00045b 9478      	sei
                 ; 0000 02C6         }
                 ; 0000 02C7 
                 ; 0000 02C8         if (P7_sw == 0) // смена значения контроллера(вкл\выкл эффект)
                 _0xA0:
00045c 99ce      	SBIC 0x19,6
00045d c021      	RJMP _0xA8
                 ; 0000 02C9         { #asm("cli")
00045e 94f8      	cli
                 ; 0000 02CA          if (ucPC_sw == 0)
00045f 20dd      	TST  R13
000460 f441      	BRNE _0xA9
                 ; 0000 02CB            {
                 ; 0000 02CC             MIDI_PC_send(nPreset_7);  // Включаем пресет
000461 2dab      	MOV  R26,R11
000462 940e 00a6 	CALL _MIDI_PC_send
                 ; 0000 02CD             CurPreset = 7;// изменяем номер активного пресета
000464 e0e7      	LDI  R30,LOW(7)
000465 e0f0      	LDI  R31,HIGH(7)
000466 940e 066e 	CALL SUBOPT_0x14
                 ; 0000 02CE             redraw_main_window();
                 ; 0000 02CF             delay_ms(BUTTON_DELAY);
000468 c00f      	RJMP _0xCB
                 ; 0000 02D0            }
                 ; 0000 02D1          else
                 _0xA9:
                 ; 0000 02D2          { if(ucFX7_sw == 0)// Если был выключен - включить и наоборот
000469 91e0 0165 	LDS  R30,_ucFX7_sw
00046b 30e0      	CPI  R30,0
00046c f411      	BRNE _0xAB
                 ; 0000 02D3                 ucFX7_sw = 127;
00046d e7ef      	LDI  R30,LOW(127)
00046e c001      	RJMP _0xCC
                 ; 0000 02D4             else
                 _0xAB:
                 ; 0000 02D5                 ucFX7_sw = 0;
00046f e0e0      	LDI  R30,LOW(0)
                 _0xCC:
000470 93e0 0165 	STS  _ucFX7_sw,R30
                 ; 0000 02D6             MIDI_CC_send(FX7, ucFX7_sw);   //отправить комманду
000472 e4e6      	LDI  R30,LOW(70)
000473 93ea      	ST   -Y,R30
000474 91a0 0165 	LDS  R26,_ucFX7_sw
000476 940e 009a 	CALL _MIDI_CC_send
                 ; 0000 02D7             delay_ms(BUTTON_DELAY);
                 _0xCB:
000478 e2ac      	LDI  R26,LOW(300)
000479 e0b1      	LDI  R27,HIGH(300)
00047a 940e 0688 	CALL _delay_ms
                 ; 0000 02D8          }
                 ; 0000 02D9          while(P7_sw == 0){};
                 _0xAD:
00047c 9bce      	SBIS 0x19,6
00047d cffe      	RJMP _0xAD
                 ; 0000 02DA          #asm("sei")
00047e 9478      	sei
                 ; 0000 02DB         }
                 ; 0000 02DC 
                 ; 0000 02DD         if (P8_sw == 0 )
                 _0xA8:
00047f 9983      	SBIC 0x10,3
000480 c021      	RJMP _0xB0
                 ; 0000 02DE         { #asm("cli")
000481 94f8      	cli
                 ; 0000 02DF           if (ucPC_sw == 0)
000482 20dd      	TST  R13
000483 f441      	BRNE _0xB1
                 ; 0000 02E0            {
                 ; 0000 02E1             MIDI_PC_send(nPreset_8);  // Включаем пресет
000484 2daa      	MOV  R26,R10
000485 940e 00a6 	CALL _MIDI_PC_send
                 ; 0000 02E2             CurPreset = 8;// изменяем номер активного пресета
000487 e0e8      	LDI  R30,LOW(8)
000488 e0f0      	LDI  R31,HIGH(8)
000489 940e 066e 	CALL SUBOPT_0x14
                 ; 0000 02E3             redraw_main_window();
                 ; 0000 02E4             delay_ms(BUTTON_DELAY);}
00048b c00f      	RJMP _0xCD
                 ; 0000 02E5          else
                 _0xB1:
                 ; 0000 02E6            { if(ucFX8_sw == 0)// Если был выключен - включить и наоборот
00048c 91e0 0166 	LDS  R30,_ucFX8_sw
00048e 30e0      	CPI  R30,0
00048f f411      	BRNE _0xB3
                 ; 0000 02E7                 ucFX8_sw = 127;
000490 e7ef      	LDI  R30,LOW(127)
000491 c001      	RJMP _0xCE
                 ; 0000 02E8             else
                 _0xB3:
                 ; 0000 02E9                 ucFX8_sw = 0;
000492 e0e0      	LDI  R30,LOW(0)
                 _0xCE:
000493 93e0 0166 	STS  _ucFX8_sw,R30
                 ; 0000 02EA             MIDI_CC_send(FX8, ucFX8_sw);   //отправить комманду
000495 e4e7      	LDI  R30,LOW(71)
000496 93ea      	ST   -Y,R30
000497 91a0 0166 	LDS  R26,_ucFX8_sw
000499 940e 009a 	CALL _MIDI_CC_send
                 ; 0000 02EB             delay_ms(BUTTON_DELAY);
                 _0xCD:
00049b e2ac      	LDI  R26,LOW(300)
00049c e0b1      	LDI  R27,HIGH(300)
00049d 940e 0688 	CALL _delay_ms
                 ; 0000 02EC           }
                 ; 0000 02ED           while(P8_sw == 0){};
                 _0xB5:
00049f 9b83      	SBIS 0x10,3
0004a0 cffe      	RJMP _0xB5
                 ; 0000 02EE           #asm("sei")
0004a1 9478      	sei
                 ; 0000 02EF          }
                 ; 0000 02F0        /* if (P8_sw == 0) // смена значения контроллера(вкл\выкл эффект)
                 ; 0000 02F1         {
                 ; 0000 02F2         #asm("cli")
                 ; 0000 02F3             if(ucFX4_sw == 0)
                 ; 0000 02F4                 ucFX4_sw = 127;
                 ; 0000 02F5             else
                 ; 0000 02F6                 ucFX4_sw = 0;
                 ; 0000 02F7             MIDI_CC_send(FX4, ucFX4_sw);
                 ; 0000 02F8         delay_ms(BUTTON_DELAY);
                 ; 0000 02F9         while(P8_sw == 0){};
                 ; 0000 02FA         #asm("sei")
                 ; 0000 02FB         }     */
                 ; 0000 02FC 
                 ; 0000 02FD 
                 ; 0000 02FE        if (PC_sw == 0) // смена значения контроллера(вкл\выкл эффект)
                 _0xB0:
0004a2 9984      	SBIC 0x10,4
0004a3 c010      	RJMP _0xB8
                 ; 0000 02FF         {
                 ; 0000 0300         #asm("cli")
0004a4 94f8      	cli
                 ; 0000 0301             if(ucPC_sw == 0)
0004a5 20dd      	TST  R13
0004a6 f419      	BRNE _0xB9
                 ; 0000 0302                 ucPC_sw = 1;
0004a7 e0e1      	LDI  R30,LOW(1)
0004a8 2ede      	MOV  R13,R30
                 ; 0000 0303             else
0004a9 c001      	RJMP _0xBA
                 _0xB9:
                 ; 0000 0304                 ucPC_sw = 0;
0004aa 24dd      	CLR  R13
                 ; 0000 0305         redraw_main_window();
                 _0xBA:
0004ab 940e 00af 	CALL _redraw_main_window
                 ; 0000 0306         delay_ms(200);
0004ad eca8      	LDI  R26,LOW(200)
0004ae e0b0      	LDI  R27,0
0004af 940e 0688 	CALL _delay_ms
                 ; 0000 0307         while(PC_sw == 0){};
                 _0xBB:
0004b1 9b84      	SBIS 0x10,4
0004b2 cffe      	RJMP _0xBB
                 ; 0000 0308         #asm("sei")
0004b3 9478      	sei
                 ; 0000 0309         }
                 ; 0000 030A      }
                 _0xB8:
0004b4 940c 0212 	JMP  _0x1A
                 ; 0000 030B   };
                 _0xBE:
0004b6 cfff      	RJMP _0xBE
                 ; .FEND
                     .equ __lcd_direction=__lcd_port-1
                     .equ __lcd_pin=__lcd_port-2
                     .equ __lcd_rs=0
                     .equ __lcd_rd=1
                     .equ __lcd_enable=2
                     .equ __lcd_busy_flag=7
                 
                 	.DSEG
                 
                 	.CSEG
                 __lcd_delay_G100:
                 ; .FSTART __lcd_delay_G100
0004b7 e0ff          ldi   r31,15
                 __lcd_delay0:
0004b8 95fa          dec   r31
0004b9 f7f1          brne  __lcd_delay0
0004ba 9508      	RET
                 ; .FEND
                 __lcd_ready:
                 ; .FSTART __lcd_ready
0004bb b3a4          in    r26,__lcd_direction
0004bc 70af          andi  r26,0xf                 ;set as input
0004bd bba4          out   __lcd_direction,r26
0004be 9aa9          sbi   __lcd_port,__lcd_rd     ;RD=1
0004bf 98a8          cbi   __lcd_port,__lcd_rs     ;RS=0
                 __lcd_busy:
0004c0 dff6      	RCALL __lcd_delay_G100
0004c1 9aaa          sbi   __lcd_port,__lcd_enable ;EN=1
0004c2 dff4      	RCALL __lcd_delay_G100
0004c3 b3a3          in    r26,__lcd_pin
0004c4 98aa          cbi   __lcd_port,__lcd_enable ;EN=0
0004c5 dff1      	RCALL __lcd_delay_G100
0004c6 9aaa          sbi   __lcd_port,__lcd_enable ;EN=1
0004c7 dfef      	RCALL __lcd_delay_G100
0004c8 98aa          cbi   __lcd_port,__lcd_enable ;EN=0
0004c9 fda7          sbrc  r26,__lcd_busy_flag
0004ca cff5          rjmp  __lcd_busy
0004cb 9508      	RET
                 ; .FEND
                 __lcd_write_nibble_G100:
                 ; .FSTART __lcd_write_nibble_G100
0004cc 7fa0          andi  r26,0xf0
0004cd 2bab          or    r26,r27
0004ce bba5          out   __lcd_port,r26          ;write
0004cf 9aaa          sbi   __lcd_port,__lcd_enable ;EN=1
0004d0 940e 04b7 	CALL __lcd_delay_G100
0004d2 98aa          cbi   __lcd_port,__lcd_enable ;EN=0
0004d3 940e 04b7 	CALL __lcd_delay_G100
0004d5 9508      	RET
                 ; .FEND
                 __lcd_write_data:
                 ; .FSTART __lcd_write_data
0004d6 93aa      	ST   -Y,R26
0004d7 98a9          cbi  __lcd_port,__lcd_rd 	  ;RD=0
0004d8 b3a4          in    r26,__lcd_direction
0004d9 6fa7          ori   r26,0xf0 | (1<<__lcd_rs) | (1<<__lcd_rd) | (1<<__lcd_enable) ;set as output
0004da bba4          out   __lcd_direction,r26
0004db b3b5          in    r27,__lcd_port
0004dc 70bf          andi  r27,0xf
0004dd 81a8          ld    r26,y
0004de dfed      	RCALL __lcd_write_nibble_G100
0004df 81a8          ld    r26,y
0004e0 95a2          swap  r26
0004e1 dfea      	RCALL __lcd_write_nibble_G100
0004e2 9aa9          sbi   __lcd_port,__lcd_rd     ;RD=1
0004e3 940c 05e3 	JMP  _0x20C0002
                 ; .FEND
                 __lcd_read_nibble_G100:
                 ; .FSTART __lcd_read_nibble_G100
0004e5 9aaa          sbi   __lcd_port,__lcd_enable ;EN=1
0004e6 940e 04b7 	CALL __lcd_delay_G100
0004e8 b3e3          in    r30,__lcd_pin           ;read
0004e9 98aa          cbi   __lcd_port,__lcd_enable ;EN=0
0004ea 940e 04b7 	CALL __lcd_delay_G100
0004ec 7fe0          andi  r30,0xf0
0004ed 9508      	RET
                 ; .FEND
                 _lcd_read_byte0_G100:
                 ; .FSTART _lcd_read_byte0_G100
0004ee 940e 04b7 	CALL __lcd_delay_G100
0004f0 dff4      	RCALL __lcd_read_nibble_G100
0004f1 2fae          mov   r26,r30
0004f2 dff2      	RCALL __lcd_read_nibble_G100
0004f3 98a9          cbi   __lcd_port,__lcd_rd     ;RD=0
0004f4 95e2          swap  r30
0004f5 2bea          or    r30,r26
0004f6 9508      	RET
                 ; .FEND
                 _lcd_gotoxy:
                 ; .FSTART _lcd_gotoxy
0004f7 93aa      	ST   -Y,R26
0004f8 940e 04bb 	CALL __lcd_ready
0004fa 81e8      	LD   R30,Y
0004fb e0f0      	LDI  R31,0
0004fc 59e2      	SUBI R30,LOW(-__base_y_G100)
0004fd 4ffe      	SBCI R31,HIGH(-__base_y_G100)
0004fe 81e0      	LD   R30,Z
0004ff 81a9      	LDD  R26,Y+1
000500 0fae      	ADD  R26,R30
000501 940e 04d6 	CALL __lcd_write_data
000503 81e9      	LDD  R30,Y+1
000504 93e0 0172 	STS  __lcd_x,R30
000506 81e8      	LD   R30,Y
000507 93e0 0173 	STS  __lcd_y,R30
                 _0x20C0004:
000509 9622      	ADIW R28,2
00050a 9508      	RET
                 ; .FEND
                 _lcd_clear:
                 ; .FSTART _lcd_clear
00050b 940e 04bb 	CALL __lcd_ready
00050d e0a2      	LDI  R26,LOW(2)
00050e 940e 04d6 	CALL __lcd_write_data
000510 940e 04bb 	CALL __lcd_ready
000512 e0ac      	LDI  R26,LOW(12)
000513 940e 04d6 	CALL __lcd_write_data
000515 940e 04bb 	CALL __lcd_ready
000517 e0a1      	LDI  R26,LOW(1)
000518 940e 04d6 	CALL __lcd_write_data
00051a e0e0      	LDI  R30,LOW(0)
00051b 93e0 0173 	STS  __lcd_y,R30
00051d 93e0 0172 	STS  __lcd_x,R30
00051f 9508      	RET
                 ; .FEND
                 _lcd_putchar:
                 ; .FSTART _lcd_putchar
000520 93aa      	ST   -Y,R26
000521 93ef          push r30
000522 93ff          push r31
000523 81a8          ld   r26,y
000524 9468          set
000525 30aa          cpi  r26,10
000526 f039          breq __lcd_putchar1
000527 94e8          clt
000528 91e0 0174 	LDS  R30,__lcd_maxx
00052a 91a0 0172 	LDS  R26,__lcd_x
00052c 17ae      	CP   R26,R30
00052d f058      	BRLO _0x2000004
                 	__lcd_putchar1:
00052e 91e0 0173 	LDS  R30,__lcd_y
000530 5fef      	SUBI R30,-LOW(1)
000531 93e0 0173 	STS  __lcd_y,R30
000533 e0e0      	LDI  R30,LOW(0)
000534 93ea      	ST   -Y,R30
000535 91a0 0173 	LDS  R26,__lcd_y
000537 dfbf      	RCALL _lcd_gotoxy
000538 f056      	brts __lcd_putchar0
                 _0x2000004:
000539 91e0 0172 	LDS  R30,__lcd_x
00053b 5fef      	SUBI R30,-LOW(1)
00053c 93e0 0172 	STS  __lcd_x,R30
00053e df7c          rcall __lcd_ready
00053f 9aa8          sbi  __lcd_port,__lcd_rs ;RS=1
000540 81a8      	LD   R26,Y
000541 940e 04d6 	CALL __lcd_write_data
                 __lcd_putchar0:
000543 91ff          pop  r31
000544 91ef          pop  r30
000545 940c 05e3 	JMP  _0x20C0002
                 ; .FEND
                 _lcd_puts:
                 ; .FSTART _lcd_puts
000547 93ba      	ST   -Y,R27
000548 93aa      	ST   -Y,R26
000549 931a      	ST   -Y,R17
                 _0x2000005:
00054a 81a9      	LDD  R26,Y+1
00054b 81ba      	LDD  R27,Y+1+1
00054c 91ed      	LD   R30,X+
00054d 83a9      	STD  Y+1,R26
00054e 83ba      	STD  Y+1+1,R27
00054f 2f1e      	MOV  R17,R30
000550 30e0      	CPI  R30,0
000551 f019      	BREQ _0x2000007
000552 2fa1      	MOV  R26,R17
000553 dfcc      	RCALL _lcd_putchar
000554 cff5      	RJMP _0x2000005
                 _0x2000007:
000555 c010      	RJMP _0x20C0003
                 ; .FEND
                 _lcd_putsf:
                 ; .FSTART _lcd_putsf
000556 93ba      	ST   -Y,R27
000557 93aa      	ST   -Y,R26
000558 931a      	ST   -Y,R17
                 _0x2000008:
000559 81e9      	LDD  R30,Y+1
00055a 81fa      	LDD  R31,Y+1+1
00055b 9631      	ADIW R30,1
00055c 83e9      	STD  Y+1,R30
00055d 83fa      	STD  Y+1+1,R31
00055e 9731      	SBIW R30,1
00055f 91e4      	LPM  R30,Z
000560 2f1e      	MOV  R17,R30
000561 30e0      	CPI  R30,0
000562 f019      	BREQ _0x200000A
000563 2fa1      	MOV  R26,R17
000564 dfbb      	RCALL _lcd_putchar
000565 cff3      	RJMP _0x2000008
                 _0x200000A:
                 _0x20C0003:
000566 8118      	LDD  R17,Y+0
000567 9623      	ADIW R28,3
000568 9508      	RET
                 ; .FEND
                 __long_delay_G100:
                 ; .FSTART __long_delay_G100
000569 27aa          clr   r26
00056a 27bb          clr   r27
                 __long_delay0:
00056b 9711          sbiw  r26,1         ;2 cycles
00056c f7f1          brne  __long_delay0 ;2 cycles
00056d 9508      	RET
                 ; .FEND
                 __lcd_init_write_G100:
                 ; .FSTART __lcd_init_write_G100
00056e 93aa      	ST   -Y,R26
00056f 98a9          cbi  __lcd_port,__lcd_rd 	  ;RD=0
000570 b3a4          in    r26,__lcd_direction
000571 6fa7          ori   r26,0xf7                ;set as output
000572 bba4          out   __lcd_direction,r26
000573 b3b5          in    r27,__lcd_port
000574 70bf          andi  r27,0xf
000575 81a8          ld    r26,y
000576 940e 04cc 	CALL __lcd_write_nibble_G100
000578 9aa9          sbi   __lcd_port,__lcd_rd     ;RD=1
000579 940c 05e3 	JMP  _0x20C0002
                 ; .FEND
                 _lcd_init:
                 ; .FSTART _lcd_init
00057b 93aa      	ST   -Y,R26
00057c 98aa          cbi   __lcd_port,__lcd_enable ;EN=0
00057d 98a8          cbi   __lcd_port,__lcd_rs     ;RS=0
00057e 81e8      	LD   R30,Y
00057f 93e0 0174 	STS  __lcd_maxx,R30
000581 58e0      	SUBI R30,-LOW(128)
                +
000582 93e0 0170+STS __base_y_G100 + ( 2 ) , R30
                 	__PUTB1MN __base_y_G100,2
000584 81e8      	LD   R30,Y
000585 54e0      	SUBI R30,-LOW(192)
                +
000586 93e0 0171+STS __base_y_G100 + ( 3 ) , R30
                 	__PUTB1MN __base_y_G100,3
000588 940e 067f 	CALL SUBOPT_0x17
00058a 940e 067f 	CALL SUBOPT_0x17
00058c 940e 067f 	CALL SUBOPT_0x17
00058e dfda      	RCALL __long_delay_G100
00058f e2a0      	LDI  R26,LOW(32)
000590 dfdd      	RCALL __lcd_init_write_G100
000591 dfd7      	RCALL __long_delay_G100
000592 e2a8      	LDI  R26,LOW(40)
000593 940e 0684 	CALL SUBOPT_0x18
000595 e0a4      	LDI  R26,LOW(4)
000596 940e 0684 	CALL SUBOPT_0x18
000598 e8a5      	LDI  R26,LOW(133)
000599 940e 0684 	CALL SUBOPT_0x18
00059b b3a4          in    r26,__lcd_direction
00059c 70af          andi  r26,0xf                 ;set as input
00059d bba4          out   __lcd_direction,r26
00059e 9aa9          sbi   __lcd_port,__lcd_rd     ;RD=1
00059f 940e 04ee 	CALL _lcd_read_byte0_G100
0005a1 30e5      	CPI  R30,LOW(0x5)
0005a2 f019      	BREQ _0x200000B
0005a3 e0e0      	LDI  R30,LOW(0)
0005a4 940c 05e3 	JMP  _0x20C0001
                 _0x200000B:
0005a6 940e 04bb 	CALL __lcd_ready
0005a8 e0a6      	LDI  R26,LOW(6)
0005a9 940e 04d6 	CALL __lcd_write_data
0005ab 940e 050b 	CALL _lcd_clear
0005ad e0e1      	LDI  R30,LOW(1)
0005ae 940c 05e3 	JMP  _0x20C0001
                 ; .FEND
                 
                 	.CSEG
                 _itoa:
                 ; .FSTART _itoa
0005b0 93ba      	ST   -Y,R27
0005b1 93aa      	ST   -Y,R26
0005b2 91a9          ld   r26,y+
0005b3 91b9          ld   r27,y+
0005b4 91e9          ld   r30,y+
0005b5 91f9          ld   r31,y+
0005b6 9630          adiw r30,0
0005b7 f42a          brpl __itoa0
0005b8 95e0          com  r30
0005b9 95f0          com  r31
0005ba 9631          adiw r30,1
0005bb e26d          ldi  r22,'-'
0005bc 936d          st   x+,r22
                 __itoa0:
0005bd 94e8          clt
0005be e180          ldi  r24,low(10000)
0005bf e297          ldi  r25,high(10000)
0005c0 d00d          rcall __itoa1
0005c1 ee88          ldi  r24,low(1000)
0005c2 e093          ldi  r25,high(1000)
0005c3 d00a          rcall __itoa1
0005c4 e684          ldi  r24,100
0005c5 2799          clr  r25
0005c6 d007          rcall __itoa1
0005c7 e08a          ldi  r24,10
0005c8 d005          rcall __itoa1
0005c9 2f6e          mov  r22,r30
0005ca d010          rcall __itoa5
0005cb 2766          clr  r22
0005cc 936c          st   x,r22
0005cd 9508          ret
                 
                 __itoa1:
0005ce 2766          clr	 r22
                 __itoa2:
0005cf 17e8          cp   r30,r24
0005d0 07f9          cpc  r31,r25
0005d1 f020          brlo __itoa3
0005d2 9563          inc  r22
0005d3 1be8          sub  r30,r24
0005d4 0bf9          sbc  r31,r25
0005d5 f7c9          brne __itoa2
                 __itoa3:
0005d6 2366          tst  r22
0005d7 f411          brne __itoa4
0005d8 f016          brts __itoa5
0005d9 9508          ret
                 __itoa4:
0005da 9468          set
                 __itoa5:
0005db 5d60          subi r22,-0x30
0005dc 936d          st   x+,r22
0005dd 9508          ret
                 ; .FEND
                 
                 	.DSEG
                 
                 	.CSEG
                 	#ifndef __SLEEP_DEFINED__
                 	#endif
                 
                 	.CSEG
                 _putchar:
                 ; .FSTART _putchar
0005de 93aa      	ST   -Y,R26
                 putchar0:
0005df 9b5d           sbis usr,udre
0005e0 cffe           rjmp putchar0
0005e1 81e8           ld   r30,y
0005e2 b9ec           out  udr,r30
                 _0x20C0002:
                 _0x20C0001:
0005e3 9621      	ADIW R28,1
0005e4 9508      	RET
                 ; .FEND
                 
                 	.CSEG
                 
                 	.CSEG
                 
                 	.CSEG
                 
                 	.ESEG
                 _ucP1:
000000 00
000001 00
000002 00
000003 00        	.DB  0x0,0x0,0x0,0x0
000004 00
000005 00
000006 00
000007 00        	.DB  0x0,0x0,0x0,0x0
000008 00
000009 00        	.DB  0x0,0x0
                 _ucP2:
00000a 00
00000b 00
00000c 00
00000d 00        	.DB  0x0,0x0,0x0,0x0
00000e 00
00000f 00
000010 00
000011 00        	.DB  0x0,0x0,0x0,0x0
000012 00
000013 00        	.DB  0x0,0x0
                 _ucP3:
000014 00
000015 00
000016 00
000017 00        	.DB  0x0,0x0,0x0,0x0
000018 00
000019 00
00001a 00
00001b 00        	.DB  0x0,0x0,0x0,0x0
00001c 00
00001d 00        	.DB  0x0,0x0
                 _ucP4:
00001e 00
00001f 00
000020 00
000021 00        	.DB  0x0,0x0,0x0,0x0
000022 00
000023 00
000024 00
000025 00        	.DB  0x0,0x0,0x0,0x0
000026 00
000027 00        	.DB  0x0,0x0
                 _ucP5:
000028 00
000029 00
00002a 00
00002b 00        	.DB  0x0,0x0,0x0,0x0
00002c 00
00002d 00
00002e 00
00002f 00        	.DB  0x0,0x0,0x0,0x0
000030 00
000031 00        	.DB  0x0,0x0
                 _ucP6:
000032 00
000033 00
000034 00
000035 00        	.DB  0x0,0x0,0x0,0x0
000036 00
000037 00
000038 00
000039 00        	.DB  0x0,0x0,0x0,0x0
00003a 00
00003b 00        	.DB  0x0,0x0
                 _ucP7:
00003c 00
00003d 00
00003e 00
00003f 00        	.DB  0x0,0x0,0x0,0x0
000040 00
000041 00
000042 00
000043 00        	.DB  0x0,0x0,0x0,0x0
000044 00
000045 00        	.DB  0x0,0x0
                 _ucP8:
000046 00
000047 00
000048 00
000049 00        	.DB  0x0,0x0,0x0,0x0
00004a 00
00004b 00
00004c 00
00004d 00        	.DB  0x0,0x0,0x0,0x0
00004e 00
00004f 00        	.DB  0x0,0x0
                 
                 	.DSEG
                 _ucFX2_sw:
000160           	.BYTE 0x1
                 _ucFX3_sw:
000161           	.BYTE 0x1
                 _ucFX4_sw:
000162           	.BYTE 0x1
                 _ucFX5_sw:
000163           	.BYTE 0x1
                 _ucFX6_sw:
000164           	.BYTE 0x1
                 _ucFX7_sw:
000165           	.BYTE 0x1
                 _ucFX8_sw:
000166           	.BYTE 0x1
                 _ADC_voltage:
000167           	.BYTE 0x2
                 _ADC_voltage_old:
000169           	.BYTE 0x2
                 _CurPreset:
00016b           	.BYTE 0x2
                 _nBnkNum:
00016d           	.BYTE 0x1
                 __base_y_G100:
00016e           	.BYTE 0x4
                 __lcd_x:
000172           	.BYTE 0x1
                 __lcd_y:
000173           	.BYTE 0x1
                 __lcd_maxx:
000174           	.BYTE 0x1
                 __seed_G101:
000175           	.BYTE 0x4
                 
                 	.CSEG
                 ;OPTIMIZER ADDED SUBROUTINE, CALLED 8 TIMES, CODE SIZE REDUCTION:11 WORDS
                 SUBOPT_0x0:
0005e5 e0f0      	LDI  R31,0
0005e6 9631      	ADIW R30,1
0005e7 93fa      	ST   -Y,R31
0005e8 93ea      	ST   -Y,R30
0005e9 9508      	RET
                 
                 ;OPTIMIZER ADDED SUBROUTINE, CALLED 8 TIMES, CODE SIZE REDUCTION:11 WORDS
                 SUBOPT_0x1:
0005ea 93ea      	ST   -Y,R30
0005eb e0a0      	LDI  R26,LOW(0)
0005ec 940c 04f7 	JMP  _lcd_gotoxy
                 
                 ;OPTIMIZER ADDED SUBROUTINE, CALLED 8 TIMES, CODE SIZE REDUCTION:11 WORDS
                 SUBOPT_0x2:
0005ee 93ea      	ST   -Y,R30
0005ef e0a1      	LDI  R26,LOW(1)
0005f0 940c 04f7 	JMP  _lcd_gotoxy
                 
                 ;OPTIMIZER ADDED SUBROUTINE, CALLED 2 TIMES, CODE SIZE REDUCTION:3 WORDS
                 SUBOPT_0x3:
0005f2 01de      	MOVW R26,R28
0005f3 9612      	ADIW R26,2
0005f4 940e 05b0 	CALL _itoa
0005f6 01de      	MOVW R26,R28
0005f7 940c 0547 	JMP  _lcd_puts
                 
                 ;OPTIMIZER ADDED SUBROUTINE, CALLED 4 TIMES, CODE SIZE REDUCTION:3 WORDS
                 SUBOPT_0x4:
                +
0005f9 e7ab     +LDI R26 , LOW ( 2 * _0x0 + ( 7 ) )
0005fa e0b0     +LDI R27 , HIGH ( 2 * _0x0 + ( 7 ) )
                 	__POINTW2FN _0x0,7
0005fb 940c 0556 	JMP  _lcd_putsf
                 
                 ;OPTIMIZER ADDED SUBROUTINE, CALLED 3 TIMES, CODE SIZE REDUCTION:7 WORDS
                 SUBOPT_0x5:
0005fd 91e0 016b 	LDS  R30,_CurPreset
0005ff 91f0 016c 	LDS  R31,_CurPreset+1
000601 30e1      	CPI  R30,LOW(0x1)
000602 e0a0      	LDI  R26,HIGH(0x1)
000603 07fa      	CPC  R31,R26
000604 9508      	RET
                 
                 ;OPTIMIZER ADDED SUBROUTINE, CALLED 24 TIMES, CODE SIZE REDUCTION:43 WORDS
                 SUBOPT_0x6:
000605 91e0 016d 	LDS  R30,_nBnkNum
000607 e0f0      	LDI  R31,0
000608 9731      	SBIW R30,1
000609 9508      	RET
                 
                 ;OPTIMIZER ADDED SUBROUTINE, CALLED 2 TIMES, CODE SIZE REDUCTION:3 WORDS
                 SUBOPT_0x7:
00060a 50e0      	SUBI R30,LOW(-_ucP1)
00060b 40f0      	SBCI R31,HIGH(-_ucP1)
00060c 01df      	MOVW R26,R30
00060d 940e 0699 	CALL __EEPROMRDB
00060f 2e5e      	MOV  R5,R30
000610 e7ef      	LDI  R30,LOW(127)
000611 15e5      	CP   R30,R5
000612 9508      	RET
                 
                 ;OPTIMIZER ADDED SUBROUTINE, CALLED 2 TIMES, CODE SIZE REDUCTION:3 WORDS
                 SUBOPT_0x8:
000613 5fe6      	SUBI R30,LOW(-_ucP2)
000614 4fff      	SBCI R31,HIGH(-_ucP2)
000615 01df      	MOVW R26,R30
000616 940e 0699 	CALL __EEPROMRDB
000618 2e4e      	MOV  R4,R30
000619 e7ef      	LDI  R30,LOW(127)
00061a 15e4      	CP   R30,R4
00061b 9508      	RET
                 
                 ;OPTIMIZER ADDED SUBROUTINE, CALLED 2 TIMES, CODE SIZE REDUCTION:3 WORDS
                 SUBOPT_0x9:
00061c 5eec      	SUBI R30,LOW(-_ucP3)
00061d 4fff      	SBCI R31,HIGH(-_ucP3)
00061e 01df      	MOVW R26,R30
00061f 940e 0699 	CALL __EEPROMRDB
000621 2e7e      	MOV  R7,R30
000622 e7ef      	LDI  R30,LOW(127)
000623 15e7      	CP   R30,R7
000624 9508      	RET
                 
                 ;OPTIMIZER ADDED SUBROUTINE, CALLED 2 TIMES, CODE SIZE REDUCTION:3 WORDS
                 SUBOPT_0xA:
000625 5ee2      	SUBI R30,LOW(-_ucP4)
000626 4fff      	SBCI R31,HIGH(-_ucP4)
000627 01df      	MOVW R26,R30
000628 940e 0699 	CALL __EEPROMRDB
00062a 2e6e      	MOV  R6,R30
00062b e7ef      	LDI  R30,LOW(127)
00062c 15e6      	CP   R30,R6
00062d 9508      	RET
                 
                 ;OPTIMIZER ADDED SUBROUTINE, CALLED 2 TIMES, CODE SIZE REDUCTION:3 WORDS
                 SUBOPT_0xB:
00062e 5de8      	SUBI R30,LOW(-_ucP5)
00062f 4fff      	SBCI R31,HIGH(-_ucP5)
000630 01df      	MOVW R26,R30
000631 940e 0699 	CALL __EEPROMRDB
000633 2e9e      	MOV  R9,R30
000634 e7ef      	LDI  R30,LOW(127)
000635 15e9      	CP   R30,R9
000636 9508      	RET
                 
                 ;OPTIMIZER ADDED SUBROUTINE, CALLED 2 TIMES, CODE SIZE REDUCTION:3 WORDS
                 SUBOPT_0xC:
000637 5cee      	SUBI R30,LOW(-_ucP6)
000638 4fff      	SBCI R31,HIGH(-_ucP6)
000639 01df      	MOVW R26,R30
00063a 940e 0699 	CALL __EEPROMRDB
00063c 2e8e      	MOV  R8,R30
00063d e7ef      	LDI  R30,LOW(127)
00063e 15e8      	CP   R30,R8
00063f 9508      	RET
                 
                 ;OPTIMIZER ADDED SUBROUTINE, CALLED 2 TIMES, CODE SIZE REDUCTION:3 WORDS
                 SUBOPT_0xD:
000640 5ce4      	SUBI R30,LOW(-_ucP7)
000641 4fff      	SBCI R31,HIGH(-_ucP7)
000642 01df      	MOVW R26,R30
000643 940e 0699 	CALL __EEPROMRDB
000645 2ebe      	MOV  R11,R30
000646 e7ef      	LDI  R30,LOW(127)
000647 15eb      	CP   R30,R11
000648 9508      	RET
                 
                 ;OPTIMIZER ADDED SUBROUTINE, CALLED 2 TIMES, CODE SIZE REDUCTION:3 WORDS
                 SUBOPT_0xE:
000649 5bea      	SUBI R30,LOW(-_ucP8)
00064a 4fff      	SBCI R31,HIGH(-_ucP8)
00064b 01df      	MOVW R26,R30
00064c 940e 0699 	CALL __EEPROMRDB
00064e 2eae      	MOV  R10,R30
00064f e7ef      	LDI  R30,LOW(127)
000650 15ea      	CP   R30,R10
000651 9508      	RET
                 
                 ;OPTIMIZER ADDED SUBROUTINE, CALLED 6 TIMES, CODE SIZE REDUCTION:17 WORDS
                 SUBOPT_0xF:
000652 940e 00af 	CALL _redraw_main_window
000654 e2ac      	LDI  R26,LOW(300)
000655 e0b1      	LDI  R27,HIGH(300)
000656 940c 0688 	JMP  _delay_ms
                 
                 ;OPTIMIZER ADDED SUBROUTINE, CALLED 3 TIMES, CODE SIZE REDUCTION:5 WORDS
                 SUBOPT_0x10:
000658 940e 018d 	CALL _redraw_save_window
00065a e2ac      	LDI  R26,LOW(300)
00065b e0b1      	LDI  R27,HIGH(300)
00065c 940c 0688 	JMP  _delay_ms
                 
                 ;OPTIMIZER ADDED SUBROUTINE, CALLED 7 TIMES, CODE SIZE REDUCTION:9 WORDS
                 SUBOPT_0x11:
00065e 940e 06a5 	CALL __EEPROMWRB
000660 cfa4      	RJMP SUBOPT_0x6
                 
                 ;OPTIMIZER ADDED SUBROUTINE, CALLED 3 TIMES, CODE SIZE REDUCTION:5 WORDS
                 SUBOPT_0x12:
000661 940e 0193 	CALL _redraw_load_window
000663 e2ac      	LDI  R26,LOW(300)
000664 e0b1      	LDI  R27,HIGH(300)
000665 940c 0688 	JMP  _delay_ms
                 
                 ;OPTIMIZER ADDED SUBROUTINE, CALLED 2 TIMES, CODE SIZE REDUCTION:1 WORDS
                 SUBOPT_0x13:
000667 e0e1      	LDI  R30,LOW(1)
000668 e0f0      	LDI  R31,HIGH(1)
000669 93e0 016b 	STS  _CurPreset,R30
00066b 93f0 016c 	STS  _CurPreset+1,R31
00066d 9508      	RET
                 
                 ;OPTIMIZER ADDED SUBROUTINE, CALLED 5 TIMES, CODE SIZE REDUCTION:13 WORDS
                 SUBOPT_0x14:
00066e 93e0 016b 	STS  _CurPreset,R30
000670 93f0 016c 	STS  _CurPreset+1,R31
000672 940c 00af 	JMP  _redraw_main_window
                 
                 ;OPTIMIZER ADDED SUBROUTINE, CALLED 2 TIMES, CODE SIZE REDUCTION:1 WORDS
                 SUBOPT_0x15:
000674 93e0 016b 	STS  _CurPreset,R30
000676 93f0 016c 	STS  _CurPreset+1,R31
000678 cfd9      	RJMP SUBOPT_0xF
                 
                 ;OPTIMIZER ADDED SUBROUTINE, CALLED 2 TIMES, CODE SIZE REDUCTION:1 WORDS
                 SUBOPT_0x16:
000679 940e 009a 	CALL _MIDI_CC_send
00067b e2ac      	LDI  R26,LOW(300)
00067c e0b1      	LDI  R27,HIGH(300)
00067d 940c 0688 	JMP  _delay_ms
                 
                 ;OPTIMIZER ADDED SUBROUTINE, CALLED 3 TIMES, CODE SIZE REDUCTION:3 WORDS
                 SUBOPT_0x17:
00067f 940e 0569 	CALL __long_delay_G100
000681 e3a0      	LDI  R26,LOW(48)
000682 940c 056e 	JMP  __lcd_init_write_G100
                 
                 ;OPTIMIZER ADDED SUBROUTINE, CALLED 3 TIMES, CODE SIZE REDUCTION:1 WORDS
                 SUBOPT_0x18:
000684 940e 04d6 	CALL __lcd_write_data
000686 940c 0569 	JMP  __long_delay_G100
                 
                 
                 	.CSEG
                 _delay_ms:
000688 9610      	adiw r26,0
000689 f039      	breq __delay_ms1
                 __delay_ms0:
                +
00068a ee88     +LDI R24 , LOW ( 0x3E8 )
00068b e093     +LDI R25 , HIGH ( 0x3E8 )
                +__DELAY_USW_LOOP :
00068c 9701     +SBIW R24 , 1
00068d f7f1     +BRNE __DELAY_USW_LOOP
                 	__DELAY_USW 0x3E8
00068e 95a8      	wdr
00068f 9711      	sbiw r26,1
000690 f7c9      	brne __delay_ms0
                 __delay_ms1:
000691 9508      	ret
                 
                 __LSRW3:
000692 95f6      	LSR  R31
000693 95e7      	ROR  R30
                 __LSRW2:
000694 95f6      	LSR  R31
000695 95e7      	ROR  R30
000696 95f6      	LSR  R31
000697 95e7      	ROR  R30
000698 9508      	RET
                 
                 __EEPROMRDB:
000699 99e1      	SBIC EECR,EEWE
00069a cffe      	RJMP __EEPROMRDB
00069b 93ff      	PUSH R31
00069c b7ff      	IN   R31,SREG
00069d 94f8      	CLI
00069e bbae      	OUT  EEARL,R26
00069f bbbf      	OUT  EEARH,R27
0006a0 9ae0      	SBI  EECR,EERE
0006a1 b3ed      	IN   R30,EEDR
0006a2 bfff      	OUT  SREG,R31
0006a3 91ff      	POP  R31
0006a4 9508      	RET
                 
                 __EEPROMWRB:
0006a5 9be1      	SBIS EECR,EEWE
0006a6 c002      	RJMP __EEPROMWRB1
0006a7 95a8      	WDR
0006a8 cffc      	RJMP __EEPROMWRB
                 __EEPROMWRB1:
0006a9 b79f      	IN   R25,SREG
0006aa 94f8      	CLI
0006ab bbae      	OUT  EEARL,R26
0006ac bbbf      	OUT  EEARH,R27
0006ad 9ae0      	SBI  EECR,EERE
0006ae b38d      	IN   R24,EEDR
0006af 17e8      	CP   R30,R24
0006b0 f019      	BREQ __EEPROMWRB0
0006b1 bbed      	OUT  EEDR,R30
0006b2 9ae2      	SBI  EECR,EEMWE
0006b3 9ae1      	SBI  EECR,EEWE
                 __EEPROMWRB0:
0006b4 bf9f      	OUT  SREG,R25
0006b5 9508      	RET
                 
                 ;END OF CODE MARKER
                 __END_OF_CODE:


RESOURCE USE INFORMATION
------------------------

Notice:
The register and instruction counts are symbol table hit counts,
and hence implicitly used resources are not counted, eg, the
'lpm' instruction without operands implicitly uses r0 and z,
none of which are counted.

x,y,z are separate entities in the symbol table and are
counted separately from r26..r31 here.

.dseg memory usage only counts static data declared with .byte

ATmega16A register use summary:
r0 :   4 r1 :   1 r2 :   0 r3 :   0 r4 :  11 r5 :  12 r6 :  11 r7 :  11 
r8 :  11 r9 :  11 r10:  11 r11:  11 r12:   4 r13:  13 r14:   0 r15:   0 
r16:   0 r17:   7 r18:   0 r19:   0 r20:   0 r21:   0 r22:  12 r23:   0 
r24:  17 r25:  10 r26: 219 r27:  42 r28:  25 r29:   1 r30: 374 r31:  83 
x  :   7 y  :  63 z  :   9 
Registers used: 25 out of 35 (71.4%)

ATmega16A instruction use summary:
.lds  :   0 .lds.l:   0 .sts  :   0 .sts.l:   0 adc   :   0 add   :   1 
adiw  :  25 and   :   0 andi  :   6 asr   :   0 bclr  :   0 bld   :   0 
brbc  :   0 brbs  :   0 brcc  :   0 brcs  :   0 break :   0 breq  :   8 
brge  :   0 brhc  :   0 brhs  :   0 brid  :   0 brie  :   0 brlo  :   4 
brlt  :   0 brmi  :   0 brne  :  52 brpl  :   1 brsh  :  34 brtc  :   0 
brts  :   2 brvc  :   0 brvs  :   0 bset  :   0 bst   :   0 call  : 192 
cbi   :  10 cbr   :   0 clc   :   0 clh   :   0 cli   :  20 cln   :   0 
clr   :  25 cls   :   0 clt   :   2 clv   :   0 clz   :   0 com   :   2 
cp    :  29 cpc   :  24 cpi   :  37 cpse  :   0 dec   :  10 des   :   0 
eor   :   0 fmul  :   0 fmuls :   0 fmulsu:   0 icall :   0 ijmp  :   0 
in    :  14 inc   :   9 jmp   :  41 ld    :  18 ldd   :   8 ldi   : 217 
lds   :  38 lpm   :   9 lsl   :   0 lsr   :   3 mov   :  42 movw  :  35 
mul   :   0 muls  :   0 mulsu :   0 neg   :   0 nop   :   0 or    :   2 
ori   :   2 out   :  56 pop   :   3 push  :   3 rcall :  22 ret   :  31 
reti  :   0 rjmp  :  93 rol   :   0 ror   :   3 sbc   :   1 sbci  :  17 
sbi   :  14 sbic  :  20 sbis  :  17 sbiw  :  11 sbr   :   0 sbrc  :   1 
sbrs  :   0 sec   :   0 seh   :   0 sei   :  17 sen   :   0 ser   :   0 
ses   :   0 set   :   2 sev   :   0 sez   :   0 sleep :   0 spm   :   0 
st    :  41 std   :   4 sts   :  30 sub   :   1 subi  :  26 swap  :   2 
tst   :  12 wdr   :   2 
Instructions used: 56 out of 116 (48.3%)

ATmega16A memory use summary [bytes]:
Segment   Begin    End      Code   Data   Used    Size   Use%
---------------------------------------------------------------
[.cseg] 0x000000 0x000d6c   3302    134   3436   16384  21.0%
[.dseg] 0x000060 0x000179      0     25     25    1024   2.4%
[.eseg] 0x000000 0x000050      0     80     80     512  15.6%

Assembly complete, 0 errors, 15 warnings
